
int.elf:     file format elf32-zpu

Disassembly of section .fixed_vectors:

00000000 <_start>:
   0:	0b          	nop
   1:	82          	im 2
   2:	70          	loadsp 0
   3:	0b          	nop
   4:	0b          	nop
   5:	80          	im 0
   6:	ce          	im -50
   7:	b4          	im 52
   8:	0c          	store
   9:	3a          	config
   a:	0b          	nop
   b:	0b          	nop
   c:	80          	im 0
   d:	c6          	im -58
   e:	c4          	im -60
   f:	04          	poppc

00000010 <_memreg>:
	...

00000020 <_zpu_interrupt_vector>:
  20:	90          	im 16
  21:	08          	load
  22:	94          	im 20
  23:	08          	load
  24:	98          	im 24
  25:	08          	load
  26:	81          	im 1
  27:	a0          	im 32
  28:	90          	im 16
  29:	0a          	flip
  2a:	08          	load
  2b:	0b          	nop
  2c:	0b          	nop
  2d:	80          	im 0
  2e:	ce          	im -50
  2f:	c0          	im -64
  30:	05          	add
  31:	08          	load
  32:	2d          	call
  33:	98          	im 24
  34:	0c          	store
  35:	94          	im 20
  36:	0c          	store
  37:	90          	im 16
  38:	0c          	store
  39:	03          	.byte 3
  3a:	04          	poppc
  3b:	00          	breakpoint
  3c:	00          	breakpoint
  3d:	00          	breakpoint
	...

00000040 <_loadh>:
  40:	71          	loadsp 4
  41:	fd          	im -3
  42:	06          	and
  43:	08          	load
  44:	72          	loadsp 8
  45:	83          	im 3
  46:	06          	and
  47:	09          	not
  48:	81          	im 1
  49:	05          	add
  4a:	82          	im 2
  4b:	05          	add
  4c:	83          	im 3
  4d:	2b          	ashiftleft
  4e:	2a          	lshiftright
  4f:	83          	im 3
  50:	ff          	im -1
  51:	ff          	im -1
  52:	06          	and
  53:	52          	storesp 8
  54:	04          	poppc
	...

00000060 <_storeh>:
  60:	71          	loadsp 4
  61:	fd          	im -3
  62:	06          	and
  63:	08          	load
  64:	83          	im 3
  65:	ff          	im -1
  66:	ff          	im -1
  67:	73          	loadsp 12
  68:	83          	im 3
  69:	06          	and
  6a:	09          	not
  6b:	81          	im 1
  6c:	05          	add
  6d:	82          	im 2
  6e:	05          	add
  6f:	83          	im 3
  70:	2b          	ashiftleft
  71:	2b          	ashiftleft
  72:	09          	not
  73:	06          	and
  74:	73          	loadsp 12
  75:	83          	im 3
  76:	ff          	im -1
  77:	ff          	im -1
  78:	0b          	nop
  79:	0b          	nop
  7a:	0b          	nop
  7b:	0b          	nop
  7c:	83          	im 3
  7d:	a7          	im 39
  7e:	04          	poppc
	...

00000080 <_lessthan>:
  80:	72          	loadsp 8
  81:	09          	not
  82:	81          	im 1
  83:	05          	add
  84:	72          	loadsp 8
  85:	05          	add
  86:	73          	loadsp 12
  87:	73          	loadsp 12
  88:	09          	not
  89:	06          	and
  8a:	09          	not
  8b:	06          	and
  8c:	73          	loadsp 12
  8d:	09          	not
  8e:	73          	loadsp 12
  8f:	06          	and
  90:	07          	or
  91:	0a          	flip
  92:	81          	im 1
  93:	06          	and
  94:	53          	storesp 12
  95:	51          	storesp 4
  96:	04          	poppc
	...

000000a0 <_lessthanorequal>:
  a0:	72          	loadsp 8
  a1:	72          	loadsp 8
  a2:	24          	lessthan
  a3:	73          	loadsp 12
  a4:	73          	loadsp 12
  a5:	2e          	eq
  a6:	07          	or
  a7:	53          	storesp 12
  a8:	51          	storesp 4
  a9:	04          	poppc
	...

000000c0 <_ulessthan>:
  c0:	71          	loadsp 4
  c1:	73          	loadsp 12
  c2:	71          	loadsp 4
  c3:	09          	not
  c4:	71          	loadsp 4
  c5:	06          	and
  c6:	81          	im 1
  c7:	06          	and
  c8:	30          	neg
  c9:	72          	loadsp 8
  ca:	0a          	flip
  cb:	10          	addsp 0
  cc:	0a          	flip
  cd:	72          	loadsp 8
  ce:	0a          	flip
  cf:	10          	addsp 0
  d0:	0a          	flip
  d1:	31          	sub
  d2:	05          	add
  d3:	0a          	flip
  d4:	81          	im 1
  d5:	06          	and
  d6:	51          	storesp 4
  d7:	51          	storesp 4
  d8:	53          	storesp 12
  d9:	51          	storesp 4
  da:	04          	poppc
  db:	00          	breakpoint
  dc:	00          	breakpoint
  dd:	00          	breakpoint
	...

000000e0 <_ulessthanorequal>:
  e0:	72          	loadsp 8
  e1:	72          	loadsp 8
  e2:	26          	ulessthan
  e3:	73          	loadsp 12
  e4:	73          	loadsp 12
  e5:	2e          	eq
  e6:	07          	or
  e7:	53          	storesp 12
  e8:	51          	storesp 4
  e9:	04          	poppc
	...

00000100 <_swap>:
	...

00000120 <_slowmult>:
 120:	0b          	nop
 121:	0b          	nop
 122:	0b          	nop
 123:	88          	im 8
 124:	c4          	im -60
 125:	04          	poppc
	...

00000140 <_lshiftright>:
 140:	72          	loadsp 8
 141:	0a          	flip
 142:	72          	loadsp 8
 143:	2b          	ashiftleft
 144:	0a          	flip
 145:	53          	storesp 12
 146:	51          	storesp 4
 147:	04          	poppc
	...

00000160 <_ashiftleft>:
 160:	72          	loadsp 8
 161:	72          	loadsp 8
 162:	9f          	im 31
 163:	06          	and
 164:	09          	not
 165:	81          	im 1
 166:	05          	add
 167:	0b          	nop
 168:	0b          	nop
 169:	0b          	nop
 16a:	88          	im 8
 16b:	a7          	im 39
 16c:	05          	add
 16d:	04          	poppc
	...

00000180 <_ashiftright>:
 180:	72          	loadsp 8
 181:	72          	loadsp 8
 182:	2a          	lshiftright
 183:	ff          	im -1
 184:	73          	loadsp 12
 185:	9f          	im 31
 186:	06          	and
 187:	2a          	lshiftright
 188:	09          	not
 189:	74          	loadsp 16
 18a:	09          	not
 18b:	0a          	flip
 18c:	81          	im 1
 18d:	06          	and
 18e:	ff          	im -1
 18f:	05          	add
 190:	06          	and
 191:	07          	or
 192:	53          	storesp 12
 193:	51          	storesp 4
 194:	04          	poppc
	...

000001a0 <_call>:
 1a0:	71          	loadsp 4
 1a1:	71          	loadsp 4
 1a2:	53          	storesp 12
 1a3:	51          	storesp 4
 1a4:	02          	pushsp
 1a5:	0d          	popsp
 1a6:	04          	poppc

000001a7 <_storehtail>:
 1a7:	06          	and
 1a8:	73          	loadsp 12
 1a9:	83          	im 3
 1aa:	06          	and
 1ab:	09          	not
 1ac:	81          	im 1
 1ad:	05          	add
 1ae:	82          	im 2
 1af:	05          	add
 1b0:	83          	im 3
 1b1:	2b          	ashiftleft
 1b2:	0b          	nop
 1b3:	2b          	ashiftleft
 1b4:	07          	or
 1b5:	72          	loadsp 8
 1b6:	fc          	im -4
 1b7:	06          	and
 1b8:	0c          	store
 1b9:	51          	storesp 4
 1ba:	51          	storesp 4
 1bb:	04          	poppc
 1bc:	00          	breakpoint
 1bd:	00          	breakpoint
	...

000001c0 <_eq>:
 1c0:	72          	loadsp 8
 1c1:	09          	not
 1c2:	81          	im 1
 1c3:	05          	add
 1c4:	72          	loadsp 8
 1c5:	05          	add
 1c6:	09          	not
 1c7:	70          	loadsp 0
 1c8:	81          	im 1
 1c9:	05          	add
 1ca:	09          	not
 1cb:	06          	and
 1cc:	0a          	flip
 1cd:	81          	im 1
 1ce:	06          	and
 1cf:	53          	storesp 12
 1d0:	51          	storesp 4
 1d1:	04          	poppc
	...

000001e0 <_neq>:
 1e0:	72          	loadsp 8
 1e1:	09          	not
 1e2:	81          	im 1
 1e3:	05          	add
 1e4:	72          	loadsp 8
 1e5:	05          	add
 1e6:	09          	not
 1e7:	70          	loadsp 0
 1e8:	81          	im 1
 1e9:	05          	add
 1ea:	09          	not
 1eb:	06          	and
 1ec:	0a          	flip
 1ed:	09          	not
 1ee:	81          	im 1
 1ef:	06          	and
 1f0:	53          	storesp 12
 1f1:	51          	storesp 4
 1f2:	04          	poppc
	...

00000200 <_neg>:
 200:	71          	loadsp 4
 201:	09          	not
 202:	81          	im 1
 203:	05          	add
 204:	52          	storesp 8
 205:	04          	poppc
	...

00000220 <_sub>:
 220:	72          	loadsp 8
 221:	72          	loadsp 8
 222:	09          	not
 223:	81          	im 1
 224:	05          	add
 225:	05          	add
 226:	53          	storesp 12
 227:	51          	storesp 4
 228:	04          	poppc
	...

00000240 <_xor>:
 240:	72          	loadsp 8
 241:	09          	not
 242:	72          	loadsp 8
 243:	06          	and
 244:	73          	loadsp 12
 245:	73          	loadsp 12
 246:	09          	not
 247:	06          	and
 248:	07          	or
 249:	53          	storesp 12
 24a:	51          	storesp 4
 24b:	04          	poppc
	...

00000260 <_loadb>:
 260:	71          	loadsp 4
 261:	fc          	im -4
 262:	06          	and
 263:	08          	load
 264:	72          	loadsp 8
 265:	83          	im 3
 266:	06          	and
 267:	09          	not
 268:	81          	im 1
 269:	05          	add
 26a:	83          	im 3
 26b:	05          	add
 26c:	10          	addsp 0
 26d:	10          	addsp 0
 26e:	10          	addsp 0
 26f:	2a          	lshiftright
 270:	81          	im 1
 271:	ff          	im -1
 272:	06          	and
 273:	52          	storesp 8
 274:	04          	poppc
	...

00000280 <_storeb>:
 280:	71          	loadsp 4
 281:	fc          	im -4
 282:	06          	and
 283:	08          	load
 284:	0b          	nop
 285:	0b          	nop
 286:	80          	im 0
 287:	cd          	im -51
 288:	f8          	im -8
 289:	73          	loadsp 12
 28a:	83          	im 3
 28b:	06          	and
 28c:	10          	addsp 0
 28d:	10          	addsp 0
 28e:	05          	add
 28f:	08          	load
 290:	06          	and
 291:	0b          	nop
 292:	0b          	nop
 293:	0b          	nop
 294:	88          	im 8
 295:	aa          	im 42
 296:	04          	poppc
	...

000002a0 <_div>:
 2a0:	0b          	nop
 2a1:	0b          	nop
 2a2:	0b          	nop
 2a3:	88          	im 8
 2a4:	f8          	im -8
 2a5:	04          	poppc
	...

000002c0 <_mod>:
 2c0:	0b          	nop
 2c1:	0b          	nop
 2c2:	0b          	nop
 2c3:	88          	im 8
 2c4:	e0          	im -32
 2c5:	04          	poppc
	...

000002e0 <_eqbranch>:
 2e0:	72          	loadsp 8
 2e1:	09          	not
 2e2:	70          	loadsp 0
 2e3:	81          	im 1
 2e4:	05          	add
 2e5:	09          	not
 2e6:	06          	and
 2e7:	0a          	flip
 2e8:	81          	im 1
 2e9:	06          	and
 2ea:	ff          	im -1
 2eb:	05          	add
 2ec:	70          	loadsp 0
 2ed:	54          	storesp 16
 2ee:	71          	loadsp 4
 2ef:	06          	and
 2f0:	73          	loadsp 12
 2f1:	09          	not
 2f2:	72          	loadsp 8
 2f3:	74          	loadsp 16
 2f4:	05          	add
 2f5:	ff          	im -1
 2f6:	05          	add
 2f7:	06          	and
 2f8:	07          	or
 2f9:	51          	storesp 4
 2fa:	51          	storesp 4
 2fb:	51          	storesp 4
 2fc:	04          	poppc
 2fd:	00          	breakpoint
	...

00000300 <_neqbranch>:
 300:	72          	loadsp 8
 301:	09          	not
 302:	70          	loadsp 0
 303:	81          	im 1
 304:	05          	add
 305:	09          	not
 306:	06          	and
 307:	0a          	flip
 308:	09          	not
 309:	81          	im 1
 30a:	06          	and
 30b:	ff          	im -1
 30c:	05          	add
 30d:	70          	loadsp 0
 30e:	54          	storesp 16
 30f:	71          	loadsp 4
 310:	06          	and
 311:	73          	loadsp 12
 312:	09          	not
 313:	72          	loadsp 8
 314:	74          	loadsp 16
 315:	05          	add
 316:	ff          	im -1
 317:	05          	add
 318:	06          	and
 319:	07          	or
 31a:	51          	storesp 4
 31b:	51          	storesp 4
 31c:	51          	storesp 4
 31d:	04          	poppc
	...

00000320 <_poppcrel>:
 320:	05          	add
 321:	ff          	im -1
 322:	05          	add
 323:	04          	poppc
	...

00000340 <_config>:
 340:	81          	im 1
 341:	0b          	nop
 342:	0b          	nop
 343:	0b          	nop
 344:	80          	im 0
 345:	ce          	im -50
 346:	b0          	im 48
 347:	0c          	store
 348:	51          	storesp 4
 349:	04          	poppc
	...

00000360 <_pushpc>:
 360:	71          	loadsp 4
 361:	81          	im 1
 362:	05          	add
 363:	52          	storesp 8
 364:	04          	poppc
	...

00000380 <_syscall_emulate>:
	...

000003a0 <_pushspadd>:
 3a0:	02          	pushsp
 3a1:	84          	im 4
 3a2:	05          	add
 3a3:	72          	loadsp 8
 3a4:	10          	addsp 0
 3a5:	10          	addsp 0
 3a6:	05          	add
 3a7:	52          	storesp 8
 3a8:	04          	poppc
	...

000003c0 <_halfmult>:
	...

000003e0 <_callpcrel>:
 3e0:	71          	loadsp 4
 3e1:	71          	loadsp 4
 3e2:	05          	add
 3e3:	ff          	im -1
 3e4:	05          	add
 3e5:	71          	loadsp 4
 3e6:	53          	storesp 12
 3e7:	51          	storesp 4
 3e8:	02          	pushsp
 3e9:	0d          	popsp
 3ea:	04          	poppc
	...
Disassembly of section .init:

00000400 <_init>:
 400:	82          	im 2
 401:	f5          	im -11
 402:	3f          	callpcrel
 403:	80          	im 0
 404:	c5          	im -59
 405:	c6          	im -58
 406:	3f          	callpcrel
 407:	04          	poppc
Disassembly of section .text:

00000408 <_ashiftleftBegin>:
     408:	10          	addsp 0
     409:	10          	addsp 0
     40a:	10          	addsp 0
     40b:	10          	addsp 0
     40c:	10          	addsp 0
     40d:	10          	addsp 0
     40e:	10          	addsp 0
     40f:	10          	addsp 0
     410:	10          	addsp 0
     411:	10          	addsp 0
     412:	10          	addsp 0
     413:	10          	addsp 0
     414:	10          	addsp 0
     415:	10          	addsp 0
     416:	10          	addsp 0
     417:	10          	addsp 0
     418:	10          	addsp 0
     419:	10          	addsp 0
     41a:	10          	addsp 0
     41b:	10          	addsp 0
     41c:	10          	addsp 0
     41d:	10          	addsp 0
     41e:	10          	addsp 0
     41f:	10          	addsp 0
     420:	10          	addsp 0
     421:	10          	addsp 0
     422:	10          	addsp 0
     423:	10          	addsp 0
     424:	10          	addsp 0
     425:	10          	addsp 0
     426:	10          	addsp 0

00000427 <_ashiftleftEnd>:
     427:	53          	storesp 12
     428:	51          	storesp 4
     429:	04          	poppc

0000042a <_storebtail>:
     42a:	73          	loadsp 12
     42b:	81          	im 1
     42c:	ff          	im -1
     42d:	06          	and
     42e:	73          	loadsp 12
     42f:	83          	im 3
     430:	06          	and
     431:	09          	not
     432:	81          	im 1
     433:	05          	add
     434:	83          	im 3
     435:	05          	add
     436:	10          	addsp 0
     437:	10          	addsp 0
     438:	10          	addsp 0
     439:	2b          	ashiftleft
     43a:	07          	or
     43b:	72          	loadsp 8
     43c:	fc          	im -4
     43d:	06          	and
     43e:	0c          	store
     43f:	51          	storesp 4
     440:	51          	storesp 4
     441:	04          	poppc

00000442 <_syscall>:
     442:	3c          	syscall
     443:	04          	poppc

00000444 <_slowmultImpl>:
     444:	72          	loadsp 8
     445:	72          	loadsp 8
     446:	80          	im 0
     447:	72          	loadsp 8
     448:	81          	im 1
     449:	06          	and
     44a:	ff          	im -1
     44b:	05          	add
     44c:	09          	not
     44d:	72          	loadsp 8
     44e:	06          	and
     44f:	05          	add
     450:	71          	loadsp 4
     451:	10          	addsp 0
     452:	52          	storesp 8
     453:	72          	loadsp 8
     454:	0a          	flip
     455:	10          	addsp 0
     456:	0a          	flip
     457:	53          	storesp 12
     458:	72          	loadsp 8
     459:	ed          	im -19
     45a:	38          	neqbranch
     45b:	51          	storesp 4
     45c:	51          	storesp 4
     45d:	53          	storesp 12
     45e:	51          	storesp 4
     45f:	04          	poppc

00000460 <___mod>:
     460:	90          	im 16
     461:	08          	load
     462:	94          	im 20
     463:	08          	load
     464:	98          	im 24
     465:	08          	load
     466:	75          	loadsp 20
     467:	75          	loadsp 20
     468:	8d          	im 13
     469:	f2          	im -14
     46a:	2d          	call
     46b:	50          	storesp 0
     46c:	50          	storesp 0
     46d:	90          	im 16
     46e:	08          	load
     46f:	56          	storesp 24
     470:	98          	im 24
     471:	0c          	store
     472:	94          	im 20
     473:	0c          	store
     474:	90          	im 16
     475:	0c          	store
     476:	51          	storesp 4
     477:	04          	poppc

00000478 <___div>:
     478:	90          	im 16
     479:	08          	load
     47a:	94          	im 20
     47b:	08          	load
     47c:	98          	im 24
     47d:	08          	load
     47e:	75          	loadsp 20
     47f:	75          	loadsp 20
     480:	8c          	im 12
     481:	c0          	im -64
     482:	2d          	call
     483:	50          	storesp 0
     484:	50          	storesp 0
     485:	90          	im 16
     486:	08          	load
     487:	56          	storesp 24
     488:	98          	im 24
     489:	0c          	store
     48a:	94          	im 20
     48b:	0c          	store
     48c:	90          	im 16
     48d:	0c          	store
     48e:	51          	storesp 4
     48f:	04          	poppc

00000490 <inbyte>:
     490:	fe          	im -2
     491:	3d          	pushspadd
     492:	0d          	popsp
     493:	0b          	nop
     494:	0b          	nop
     495:	80          	im 0
     496:	df          	im -33
     497:	9c          	im 28
     498:	08          	load
     499:	53          	storesp 12

0000049a <.L2>:
     49a:	84          	im 4
     49b:	13          	addsp 12
     49c:	08          	load

0000049d <.LSM2>:
     49d:	70          	loadsp 0
     49e:	88          	im 8
     49f:	2a          	lshiftright
     4a0:	70          	loadsp 0
     4a1:	81          	im 1
     4a2:	06          	and
     4a3:	51          	storesp 4
     4a4:	52          	storesp 8
     4a5:	52          	storesp 8
     4a6:	70          	loadsp 0
     4a7:	80          	im 0
     4a8:	2e          	eq
     4a9:	f0          	im -16
     4aa:	38          	neqbranch

000004ab <.LSM3>:
     4ab:	71          	loadsp 4
     4ac:	81          	im 1
     4ad:	ff          	im -1
     4ae:	06          	and
     4af:	90          	im 16
     4b0:	0c          	store

000004b1 <.LSM4>:
     4b1:	84          	im 4
     4b2:	3d          	pushspadd
     4b3:	0d          	popsp
     4b4:	04          	poppc

000004b5 <outbyte>:
     4b5:	ff          	im -1
     4b6:	3d          	pushspadd
     4b7:	0d          	popsp
     4b8:	0b          	nop
     4b9:	0b          	nop
     4ba:	80          	im 0
     4bb:	df          	im -33
     4bc:	9c          	im 28
     4bd:	08          	load
     4be:	52          	storesp 8

000004bf <.L7>:
     4bf:	71          	loadsp 4
     4c0:	08          	load
     4c1:	70          	loadsp 0
     4c2:	88          	im 8
     4c3:	2a          	lshiftright
     4c4:	81          	im 1
     4c5:	32          	xor
     4c6:	70          	loadsp 0
     4c7:	81          	im 1
     4c8:	06          	and
     4c9:	51          	storesp 4
     4ca:	51          	storesp 4
     4cb:	51          	storesp 4
     4cc:	70          	loadsp 0
     4cd:	f1          	im -15
     4ce:	38          	neqbranch

000004cf <.LSM7>:
     4cf:	73          	loadsp 12
     4d0:	72          	loadsp 8
     4d1:	0c          	store
     4d2:	83          	im 3
     4d3:	3d          	pushspadd
     4d4:	0d          	popsp
     4d5:	04          	poppc

000004d6 <_initIO>:
     4d6:	80          	im 0
     4d7:	ce          	im -50
     4d8:	b0          	im 48
     4d9:	08          	load
     4da:	80          	im 0
     4db:	2e          	eq
     4dc:	a4          	im 36
     4dd:	38          	neqbranch

000004de <.LSM10>:
     4de:	80          	im 0
     4df:	ce          	im -50
     4e0:	b4          	im 52
     4e1:	08          	load
     4e2:	82          	im 2
     4e3:	2e          	eq
     4e4:	bd          	im 61
     4e5:	38          	neqbranch

000004e6 <.LSM11>:
     4e6:	83          	im 3
     4e7:	80          	im 0
     4e8:	80          	im 0
     4e9:	0b          	nop
     4ea:	0b          	nop
     4eb:	0b          	nop
     4ec:	80          	im 0
     4ed:	df          	im -33
     4ee:	9c          	im 28
     4ef:	0c          	store

000004f0 <.LSM12>:
     4f0:	82          	im 2
     4f1:	a0          	im 32
     4f2:	80          	im 0
     4f3:	0b          	nop
     4f4:	80          	im 0
     4f5:	df          	im -33
     4f6:	a0          	im 32
     4f7:	0c          	store

000004f8 <.LSM13>:
     4f8:	82          	im 2
     4f9:	90          	im 16
     4fa:	80          	im 0
     4fb:	0b          	nop
     4fc:	80          	im 0
     4fd:	df          	im -33
     4fe:	a4          	im 36
     4ff:	0c          	store

00000500 <.LSM14>:
     500:	04          	poppc

00000501 <.L11>:
     501:	f8          	im -8
     502:	80          	im 0
     503:	80          	im 0
     504:	80          	im 0
     505:	a4          	im 36
     506:	0b          	nop
     507:	0b          	nop
     508:	0b          	nop
     509:	80          	im 0
     50a:	df          	im -33
     50b:	9c          	im 28
     50c:	0c          	store

0000050d <.LSM16>:
     50d:	f8          	im -8
     50e:	80          	im 0
     50f:	80          	im 0
     510:	82          	im 2
     511:	80          	im 0
     512:	0b          	nop
     513:	80          	im 0
     514:	df          	im -33
     515:	a0          	im 32
     516:	0c          	store

00000517 <.LSM17>:
     517:	f8          	im -8
     518:	80          	im 0
     519:	80          	im 0
     51a:	84          	im 4
     51b:	80          	im 0
     51c:	0b          	nop
     51d:	80          	im 0
     51e:	df          	im -33
     51f:	a4          	im 36
     520:	0c          	store

00000521 <.LSM18>:
     521:	04          	poppc

00000522 <.L16>:
     522:	80          	im 0
     523:	c0          	im -64
     524:	a8          	im 40
     525:	80          	im 0
     526:	8c          	im 12
     527:	0b          	nop
     528:	0b          	nop
     529:	0b          	nop
     52a:	80          	im 0
     52b:	df          	im -33
     52c:	9c          	im 28
     52d:	0c          	store

0000052e <.LSM20>:
     52e:	80          	im 0
     52f:	c0          	im -64
     530:	a8          	im 40
     531:	80          	im 0
     532:	94          	im 20
     533:	0b          	nop
     534:	80          	im 0
     535:	df          	im -33
     536:	a0          	im 32
     537:	0c          	store

00000538 <.LSM21>:
     538:	80          	im 0
     539:	ce          	im -50
     53a:	88          	im 8
     53b:	0b          	nop
     53c:	80          	im 0
     53d:	df          	im -33
     53e:	a4          	im 36
     53f:	0c          	store

00000540 <.LSM22>:
     540:	04          	poppc

00000541 <__do_global_dtors_aux>:
     541:	ff          	im -1
     542:	3d          	pushspadd
     543:	0d          	popsp
     544:	80          	im 0
     545:	df          	im -33
     546:	a8          	im 40
     547:	33          	loadb
     548:	51          	storesp 4
     549:	70          	loadsp 0
     54a:	a7          	im 39
     54b:	38          	neqbranch
     54c:	80          	im 0
     54d:	ce          	im -50
     54e:	bc          	im 60
     54f:	08          	load
     550:	70          	loadsp 0
     551:	08          	load
     552:	52          	storesp 8
     553:	52          	storesp 8
     554:	70          	loadsp 0
     555:	80          	im 0
     556:	2e          	eq
     557:	94          	im 20
     558:	38          	neqbranch

00000559 <.L10>:
     559:	84          	im 4
     55a:	12          	addsp 8
     55b:	80          	im 0
     55c:	ce          	im -50
     55d:	bc          	im 60
     55e:	0c          	store
     55f:	70          	loadsp 0
     560:	2d          	call
     561:	80          	im 0
     562:	ce          	im -50
     563:	bc          	im 60
     564:	08          	load
     565:	70          	loadsp 0
     566:	08          	load
     567:	52          	storesp 8
     568:	52          	storesp 8
     569:	70          	loadsp 0
     56a:	ee          	im -18
     56b:	38          	neqbranch

0000056c <.L7>:
     56c:	81          	im 1
     56d:	0b          	nop
     56e:	80          	im 0
     56f:	df          	im -33
     570:	a8          	im 40
     571:	34          	storeb

00000572 <.L1>:
     572:	83          	im 3
     573:	3d          	pushspadd
     574:	0d          	popsp
     575:	04          	poppc

00000576 <call___do_global_dtors_aux>:
     576:	04          	poppc

00000577 <frame_dummy>:
     577:	80          	im 0
     578:	3d          	pushspadd
     579:	0d          	popsp
     57a:	0b          	nop
     57b:	0b          	nop
     57c:	80          	im 0
     57d:	df          	im -33
     57e:	98          	im 24
     57f:	08          	load
     580:	80          	im 0
     581:	2e          	eq
     582:	8e          	im 14
     583:	38          	neqbranch
     584:	0b          	nop
     585:	0b          	nop
     586:	0b          	nop
     587:	0b          	nop
     588:	80          	im 0
     589:	0b          	nop
     58a:	80          	im 0
     58b:	2e          	eq
     58c:	09          	not
     58d:	81          	im 1
     58e:	06          	and
     58f:	85          	im 5
     590:	38          	neqbranch

00000591 <.L12>:
     591:	82          	im 2
     592:	3d          	pushspadd
     593:	0d          	popsp
     594:	04          	poppc

00000595 <.L15>:
     595:	0b          	nop
     596:	0b          	nop
     597:	80          	im 0
     598:	df          	im -33
     599:	98          	im 24
     59a:	51          	storesp 4
     59b:	0b          	nop
     59c:	0b          	nop
     59d:	0b          	nop
     59e:	f4          	im -12
     59f:	e0          	im -32
     5a0:	3f          	callpcrel
     5a1:	82          	im 2
     5a2:	3d          	pushspadd
     5a3:	0d          	popsp
     5a4:	04          	poppc

000005a5 <call_frame_dummy>:
     5a5:	04          	poppc

000005a6 <_zpu_interrupt>:
     5a6:	83          	im 3
     5a7:	0b          	nop
     5a8:	80          	im 0
     5a9:	c0          	im -64
     5aa:	a8          	im 40
     5ab:	80          	im 0
     5ac:	a0          	im 32
     5ad:	0c          	store

000005ae <.L2>:
     5ae:	ff          	im -1
     5af:	39          	poppcrel

000005b0 <varj>:
     5b0:	81          	im 1
     5b1:	0b          	nop
     5b2:	80          	im 0
     5b3:	c0          	im -64
     5b4:	a8          	im 40
     5b5:	80          	im 0
     5b6:	b0          	im 48
     5b7:	0c          	store
     5b8:	04          	poppc

000005b9 <muhaha>:
     5b9:	80          	im 0
     5ba:	3d          	pushspadd
     5bb:	0d          	popsp

000005bc <.LM6>:
     5bc:	80          	im 0
     5bd:	ce          	im -50
     5be:	8c          	im 12
     5bf:	51          	storesp 4
     5c0:	86          	im 6
     5c1:	d5          	im -43
     5c2:	3f          	callpcrel

000005c3 <.LM7>:
     5c3:	81          	im 1
     5c4:	0b          	nop
     5c5:	80          	im 0
     5c6:	c0          	im -64
     5c7:	a8          	im 40
     5c8:	80          	im 0
     5c9:	b0          	im 48
     5ca:	0c          	store
     5cb:	82          	im 2
     5cc:	3d          	pushspadd
     5cd:	0d          	popsp
     5ce:	04          	poppc

000005cf <echo>:
     5cf:	80          	im 0
     5d0:	3d          	pushspadd
     5d1:	0d          	popsp

000005d2 <.L8>:
     5d2:	80          	im 0
     5d3:	c0          	im -64
     5d4:	a8          	im 40
     5d5:	80          	im 0
     5d6:	8c          	im 12
     5d7:	08          	load
     5d8:	70          	loadsp 0
     5d9:	88          	im 8
     5da:	2a          	lshiftright
     5db:	81          	im 1
     5dc:	32          	xor
     5dd:	70          	loadsp 0
     5de:	81          	im 1
     5df:	06          	and
     5e0:	51          	storesp 4
     5e1:	51          	storesp 4
     5e2:	51          	storesp 4
     5e3:	70          	loadsp 0
     5e4:	ed          	im -19
     5e5:	38          	neqbranch

000005e6 <.LM10>:
     5e6:	80          	im 0
     5e7:	c0          	im -64
     5e8:	a8          	im 40
     5e9:	80          	im 0
     5ea:	90          	im 16
     5eb:	08          	load
     5ec:	70          	loadsp 0
     5ed:	81          	im 1
     5ee:	ff          	im -1
     5ef:	06          	and
     5f0:	80          	im 0
     5f1:	c0          	im -64
     5f2:	a8          	im 40
     5f3:	80          	im 0
     5f4:	8c          	im 12
     5f5:	0c          	store
     5f6:	51          	storesp 4

000005f7 <.LM11>:
     5f7:	81          	im 1
     5f8:	0b          	nop
     5f9:	80          	im 0
     5fa:	c0          	im -64
     5fb:	a8          	im 40
     5fc:	80          	im 0
     5fd:	a8          	im 40
     5fe:	0c          	store
     5ff:	82          	im 2
     600:	3d          	pushspadd
     601:	0d          	popsp
     602:	04          	poppc

00000603 <main>:
     603:	83          	im 3
     604:	0b          	nop
     605:	80          	im 0
     606:	c0          	im -64
     607:	a8          	im 40
     608:	80          	im 0
     609:	a0          	im 32
     60a:	0c          	store

0000060b <.LM14>:
     60b:	fe          	im -2
     60c:	80          	im 0
     60d:	0a          	flip
     60e:	0b          	nop
     60f:	80          	im 0
     610:	c0          	im -64
     611:	a8          	im 40
     612:	80          	im 0
     613:	b4          	im 52
     614:	0c          	store

00000615 <.LM15>:
     615:	83          	im 3
     616:	0b          	nop
     617:	80          	im 0
     618:	c0          	im -64
     619:	a8          	im 40
     61a:	80          	im 0
     61b:	b0          	im 48
     61c:	0c          	store

0000061d <.LM16>:
     61d:	81          	im 1
     61e:	0b          	nop
     61f:	80          	im 0
     620:	c0          	im -64
     621:	a8          	im 40
     622:	80          	im 0
     623:	ac          	im 44
     624:	0c          	store

00000625 <.LM17>:
     625:	81          	im 1
     626:	0b          	nop
     627:	80          	im 0
     628:	c0          	im -64
     629:	a8          	im 40
     62a:	80          	im 0
     62b:	a4          	im 36
     62c:	0c          	store

0000062d <.LM18>:
     62d:	84          	im 4
     62e:	0a          	flip
     62f:	0b          	nop
     630:	80          	im 0
     631:	c0          	im -64
     632:	a8          	im 40
     633:	80          	im 0
     634:	9c          	im 28
     635:	0c          	store

00000636 <.LM19>:
     636:	80          	im 0
     637:	0b          	nop
     638:	80          	im 0
     639:	c0          	im -64
     63a:	a8          	im 40
     63b:	80          	im 0
     63c:	a0          	im 32
     63d:	0c          	store

0000063e <.L14>:
     63e:	ff          	im -1
     63f:	39          	poppcrel

00000640 <__divsi3>:
     640:	9c          	im 28
     641:	08          	load
     642:	02          	pushsp
     643:	9c          	im 28
     644:	0c          	store
     645:	f9          	im -7
     646:	3d          	pushspadd
     647:	0d          	popsp
     648:	80          	im 0
     649:	0b          	nop
     64a:	9c          	im 28
     64b:	08          	load
     64c:	fc          	im -4
     64d:	05          	add
     64e:	0c          	store
     64f:	9c          	im 28
     650:	08          	load
     651:	88          	im 8
     652:	05          	add
     653:	08          	load
     654:	80          	im 0
     655:	25          	lessthanorequal
     656:	ab          	im 43
     657:	38          	neqbranch
     658:	9c          	im 28
     659:	08          	load
     65a:	88          	im 8
     65b:	05          	add
     65c:	08          	load
     65d:	30          	neg
     65e:	9c          	im 28
     65f:	08          	load
     660:	88          	im 8
     661:	05          	add
     662:	0c          	store
     663:	80          	im 0
     664:	0b          	nop
     665:	9c          	im 28
     666:	08          	load
     667:	f4          	im -12
     668:	05          	add
     669:	0c          	store
     66a:	9c          	im 28
     66b:	08          	load
     66c:	fc          	im -4
     66d:	05          	add
     66e:	08          	load
     66f:	88          	im 8
     670:	38          	neqbranch
     671:	81          	im 1
     672:	0b          	nop
     673:	9c          	im 28
     674:	08          	load
     675:	f4          	im -12
     676:	05          	add
     677:	0c          	store

00000678 <.L3>:
     678:	9c          	im 28
     679:	08          	load
     67a:	f4          	im -12
     67b:	05          	add
     67c:	08          	load
     67d:	9c          	im 28
     67e:	08          	load
     67f:	fc          	im -4
     680:	05          	add
     681:	0c          	store

00000682 <.L2>:
     682:	9c          	im 28
     683:	08          	load
     684:	8c          	im 12
     685:	05          	add
     686:	08          	load
     687:	80          	im 0
     688:	25          	lessthanorequal
     689:	ab          	im 43
     68a:	38          	neqbranch
     68b:	9c          	im 28
     68c:	08          	load
     68d:	8c          	im 12
     68e:	05          	add
     68f:	08          	load
     690:	30          	neg
     691:	9c          	im 28
     692:	08          	load
     693:	8c          	im 12
     694:	05          	add
     695:	0c          	store
     696:	80          	im 0
     697:	0b          	nop
     698:	9c          	im 28
     699:	08          	load
     69a:	f0          	im -16
     69b:	05          	add
     69c:	0c          	store
     69d:	9c          	im 28
     69e:	08          	load
     69f:	fc          	im -4
     6a0:	05          	add
     6a1:	08          	load
     6a2:	88          	im 8
     6a3:	38          	neqbranch
     6a4:	81          	im 1
     6a5:	0b          	nop
     6a6:	9c          	im 28
     6a7:	08          	load
     6a8:	f0          	im -16
     6a9:	05          	add
     6aa:	0c          	store

000006ab <.L5>:
     6ab:	9c          	im 28
     6ac:	08          	load
     6ad:	f0          	im -16
     6ae:	05          	add
     6af:	08          	load
     6b0:	9c          	im 28
     6b1:	08          	load
     6b2:	fc          	im -4
     6b3:	05          	add
     6b4:	0c          	store

000006b5 <.L4>:
     6b5:	80          	im 0
     6b6:	53          	storesp 12
     6b7:	9c          	im 28
     6b8:	08          	load
     6b9:	8c          	im 12
     6ba:	05          	add
     6bb:	08          	load
     6bc:	52          	storesp 8
     6bd:	9c          	im 28
     6be:	08          	load
     6bf:	88          	im 8
     6c0:	05          	add
     6c1:	08          	load
     6c2:	51          	storesp 4
     6c3:	81          	im 1
     6c4:	a7          	im 39
     6c5:	3f          	callpcrel
     6c6:	90          	im 16
     6c7:	08          	load
     6c8:	70          	loadsp 0
     6c9:	9c          	im 28
     6ca:	08          	load
     6cb:	f8          	im -8
     6cc:	05          	add
     6cd:	0c          	store
     6ce:	54          	storesp 16
     6cf:	9c          	im 28
     6d0:	08          	load
     6d1:	fc          	im -4
     6d2:	05          	add
     6d3:	08          	load
     6d4:	80          	im 0
     6d5:	2e          	eq
     6d6:	8c          	im 12
     6d7:	38          	neqbranch
     6d8:	9c          	im 28
     6d9:	08          	load
     6da:	f8          	im -8
     6db:	05          	add
     6dc:	08          	load
     6dd:	30          	neg
     6de:	9c          	im 28
     6df:	08          	load
     6e0:	f8          	im -8
     6e1:	05          	add
     6e2:	0c          	store

000006e3 <.L6>:
     6e3:	9c          	im 28
     6e4:	08          	load
     6e5:	f8          	im -8
     6e6:	05          	add
     6e7:	08          	load
     6e8:	70          	loadsp 0
     6e9:	90          	im 16
     6ea:	0c          	store
     6eb:	54          	storesp 16
     6ec:	89          	im 9
     6ed:	3d          	pushspadd
     6ee:	0d          	popsp
     6ef:	9c          	im 28
     6f0:	0c          	store
     6f1:	04          	poppc

000006f2 <__modsi3>:
     6f2:	9c          	im 28
     6f3:	08          	load
     6f4:	02          	pushsp
     6f5:	9c          	im 28
     6f6:	0c          	store
     6f7:	fb          	im -5
     6f8:	3d          	pushspadd
     6f9:	0d          	popsp
     6fa:	80          	im 0
     6fb:	0b          	nop
     6fc:	9c          	im 28
     6fd:	08          	load
     6fe:	fc          	im -4
     6ff:	05          	add
     700:	0c          	store
     701:	9c          	im 28
     702:	08          	load
     703:	88          	im 8
     704:	05          	add
     705:	08          	load
     706:	80          	im 0
     707:	25          	lessthanorequal
     708:	93          	im 19
     709:	38          	neqbranch
     70a:	9c          	im 28
     70b:	08          	load
     70c:	88          	im 8
     70d:	05          	add
     70e:	08          	load
     70f:	30          	neg
     710:	9c          	im 28
     711:	08          	load
     712:	88          	im 8
     713:	05          	add
     714:	0c          	store
     715:	81          	im 1
     716:	0b          	nop
     717:	9c          	im 28
     718:	08          	load
     719:	fc          	im -4
     71a:	05          	add
     71b:	0c          	store

0000071c <.L8>:
     71c:	9c          	im 28
     71d:	08          	load
     71e:	8c          	im 12
     71f:	05          	add
     720:	08          	load
     721:	80          	im 0
     722:	25          	lessthanorequal
     723:	8c          	im 12
     724:	38          	neqbranch
     725:	9c          	im 28
     726:	08          	load
     727:	8c          	im 12
     728:	05          	add
     729:	08          	load
     72a:	30          	neg
     72b:	9c          	im 28
     72c:	08          	load
     72d:	8c          	im 12
     72e:	05          	add
     72f:	0c          	store

00000730 <.L9>:
     730:	81          	im 1
     731:	53          	storesp 12
     732:	9c          	im 28
     733:	08          	load
     734:	8c          	im 12
     735:	05          	add
     736:	08          	load
     737:	52          	storesp 8
     738:	9c          	im 28
     739:	08          	load
     73a:	88          	im 8
     73b:	05          	add
     73c:	08          	load
     73d:	51          	storesp 4
     73e:	ad          	im 45
     73f:	3f          	callpcrel
     740:	90          	im 16
     741:	08          	load
     742:	70          	loadsp 0
     743:	9c          	im 28
     744:	08          	load
     745:	f8          	im -8
     746:	05          	add
     747:	0c          	store
     748:	54          	storesp 16
     749:	9c          	im 28
     74a:	08          	load
     74b:	fc          	im -4
     74c:	05          	add
     74d:	08          	load
     74e:	80          	im 0
     74f:	2e          	eq
     750:	8c          	im 12
     751:	38          	neqbranch
     752:	9c          	im 28
     753:	08          	load
     754:	f8          	im -8
     755:	05          	add
     756:	08          	load
     757:	30          	neg
     758:	9c          	im 28
     759:	08          	load
     75a:	f8          	im -8
     75b:	05          	add
     75c:	0c          	store

0000075d <.L10>:
     75d:	9c          	im 28
     75e:	08          	load
     75f:	f8          	im -8
     760:	05          	add
     761:	08          	load
     762:	70          	loadsp 0
     763:	90          	im 16
     764:	0c          	store
     765:	54          	storesp 16
     766:	87          	im 7
     767:	3d          	pushspadd
     768:	0d          	popsp
     769:	9c          	im 28
     76a:	0c          	store
     76b:	04          	poppc

0000076c <udivmodsi4>:
     76c:	9c          	im 28
     76d:	08          	load
     76e:	02          	pushsp
     76f:	9c          	im 28
     770:	0c          	store
     771:	fd          	im -3
     772:	3d          	pushspadd
     773:	0d          	popsp
     774:	81          	im 1
     775:	0b          	nop
     776:	9c          	im 28
     777:	08          	load
     778:	fc          	im -4
     779:	05          	add
     77a:	0c          	store
     77b:	80          	im 0
     77c:	0b          	nop
     77d:	9c          	im 28
     77e:	08          	load
     77f:	f8          	im -8
     780:	05          	add
     781:	0c          	store

00000782 <.L2>:
     782:	9c          	im 28
     783:	08          	load
     784:	8c          	im 12
     785:	05          	add
     786:	08          	load
     787:	9c          	im 28
     788:	08          	load
     789:	88          	im 8
     78a:	05          	add
     78b:	08          	load
     78c:	27          	ulessthanorequal
     78d:	ac          	im 44
     78e:	38          	neqbranch
     78f:	9c          	im 28
     790:	08          	load
     791:	fc          	im -4
     792:	05          	add
     793:	08          	load
     794:	80          	im 0
     795:	2e          	eq
     796:	a3          	im 35
     797:	38          	neqbranch
     798:	80          	im 0
     799:	0b          	nop
     79a:	9c          	im 28
     79b:	08          	load
     79c:	8c          	im 12
     79d:	05          	add
     79e:	08          	load
     79f:	24          	lessthan
     7a0:	99          	im 25
     7a1:	38          	neqbranch
     7a2:	9c          	im 28
     7a3:	08          	load
     7a4:	8c          	im 12
     7a5:	05          	add
     7a6:	08          	load
     7a7:	10          	addsp 0
     7a8:	9c          	im 28
     7a9:	08          	load
     7aa:	8c          	im 12
     7ab:	05          	add
     7ac:	0c          	store
     7ad:	9c          	im 28
     7ae:	08          	load
     7af:	fc          	im -4
     7b0:	05          	add
     7b1:	08          	load
     7b2:	10          	addsp 0
     7b3:	9c          	im 28
     7b4:	08          	load
     7b5:	fc          	im -4
     7b6:	05          	add
     7b7:	0c          	store
     7b8:	c9          	im -55
     7b9:	39          	poppcrel

000007ba <.L4>:
     7ba:	9c          	im 28
     7bb:	08          	load
     7bc:	fc          	im -4
     7bd:	05          	add
     7be:	08          	load
     7bf:	80          	im 0
     7c0:	2e          	eq
     7c1:	80          	im 0
     7c2:	c9          	im -55
     7c3:	38          	neqbranch
     7c4:	9c          	im 28
     7c5:	08          	load
     7c6:	8c          	im 12
     7c7:	05          	add
     7c8:	08          	load
     7c9:	9c          	im 28
     7ca:	08          	load
     7cb:	88          	im 8
     7cc:	05          	add
     7cd:	08          	load
     7ce:	26          	ulessthan
     7cf:	a1          	im 33
     7d0:	38          	neqbranch
     7d1:	9c          	im 28
     7d2:	08          	load
     7d3:	88          	im 8
     7d4:	05          	add
     7d5:	08          	load
     7d6:	9c          	im 28
     7d7:	08          	load
     7d8:	8c          	im 12
     7d9:	05          	add
     7da:	08          	load
     7db:	31          	sub
     7dc:	9c          	im 28
     7dd:	08          	load
     7de:	88          	im 8
     7df:	05          	add
     7e0:	0c          	store
     7e1:	9c          	im 28
     7e2:	08          	load
     7e3:	f8          	im -8
     7e4:	05          	add
     7e5:	08          	load
     7e6:	9c          	im 28
     7e7:	08          	load
     7e8:	fc          	im -4
     7e9:	05          	add
     7ea:	08          	load
     7eb:	07          	or
     7ec:	9c          	im 28
     7ed:	08          	load
     7ee:	f8          	im -8
     7ef:	05          	add
     7f0:	0c          	store

000007f1 <.L6>:
     7f1:	9c          	im 28
     7f2:	08          	load
     7f3:	fc          	im -4
     7f4:	05          	add
     7f5:	08          	load
     7f6:	81          	im 1
     7f7:	2a          	lshiftright
     7f8:	9c          	im 28
     7f9:	08          	load
     7fa:	fc          	im -4
     7fb:	05          	add
     7fc:	0c          	store
     7fd:	9c          	im 28
     7fe:	08          	load
     7ff:	8c          	im 12
     800:	05          	add
     801:	08          	load
     802:	81          	im 1
     803:	2a          	lshiftright
     804:	9c          	im 28
     805:	08          	load
     806:	8c          	im 12
     807:	05          	add
     808:	0c          	store
     809:	ff          	im -1
     80a:	af          	im 47
     80b:	39          	poppcrel

0000080c <.L5>:
     80c:	9c          	im 28
     80d:	08          	load
     80e:	90          	im 16
     80f:	05          	add
     810:	08          	load
     811:	80          	im 0
     812:	2e          	eq
     813:	8f          	im 15
     814:	38          	neqbranch
     815:	9c          	im 28
     816:	08          	load
     817:	88          	im 8
     818:	05          	add
     819:	08          	load
     81a:	70          	loadsp 0
     81b:	9c          	im 28
     81c:	08          	load
     81d:	f4          	im -12
     81e:	05          	add
     81f:	0c          	store
     820:	51          	storesp 4
     821:	8d          	im 13
     822:	39          	poppcrel

00000823 <.L7>:
     823:	9c          	im 28
     824:	08          	load
     825:	f8          	im -8
     826:	05          	add
     827:	08          	load
     828:	70          	loadsp 0
     829:	9c          	im 28
     82a:	08          	load
     82b:	f4          	im -12
     82c:	05          	add
     82d:	0c          	store
     82e:	51          	storesp 4

0000082f <.L1>:
     82f:	9c          	im 28
     830:	08          	load
     831:	f4          	im -12
     832:	05          	add
     833:	08          	load
     834:	90          	im 16
     835:	0c          	store
     836:	85          	im 5
     837:	3d          	pushspadd
     838:	0d          	popsp
     839:	9c          	im 28
     83a:	0c          	store
     83b:	04          	poppc

0000083c <memcpy>:
     83c:	fc          	im -4
     83d:	3d          	pushspadd
     83e:	0d          	popsp
     83f:	76          	loadsp 24

00000840 <.LM2>:
     840:	70          	loadsp 0

00000841 <.LM3>:
     841:	79          	loadsp 36

00000842 <.LM4>:
     842:	7b          	loadsp 44
     843:	55          	storesp 20
     844:	55          	storesp 20
     845:	55          	storesp 20
     846:	55          	storesp 20

00000847 <.LM5>:
     847:	8f          	im 15
     848:	72          	loadsp 8
     849:	27          	ulessthanorequal
     84a:	8c          	im 12
     84b:	38          	neqbranch
     84c:	72          	loadsp 8
     84d:	75          	loadsp 20
     84e:	07          	or
     84f:	83          	im 3
     850:	06          	and
     851:	51          	storesp 4
     852:	70          	loadsp 0
     853:	80          	im 0
     854:	2e          	eq
     855:	a7          	im 39
     856:	38          	neqbranch

00000857 <.L2>:
     857:	ff          	im -1
     858:	12          	addsp 8
     859:	52          	storesp 8
     85a:	71          	loadsp 4
     85b:	ff          	im -1
     85c:	2e          	eq
     85d:	98          	im 24
     85e:	38          	neqbranch

0000085f <.L21>:
     85f:	72          	loadsp 8
     860:	70          	loadsp 0
     861:	81          	im 1
     862:	05          	add
     863:	54          	storesp 16
     864:	33          	loadb
     865:	74          	loadsp 16
     866:	70          	loadsp 0
     867:	81          	im 1
     868:	05          	add
     869:	56          	storesp 24
     86a:	34          	storeb
     86b:	ff          	im -1
     86c:	12          	addsp 8
     86d:	52          	storesp 8
     86e:	71          	loadsp 4
     86f:	ff          	im -1
     870:	2e          	eq
     871:	09          	not
     872:	81          	im 1
     873:	06          	and
     874:	ea          	im -22
     875:	38          	neqbranch

00000876 <.L17>:
     876:	74          	loadsp 16
     877:	90          	im 16
     878:	0c          	store
     879:	86          	im 6
     87a:	3d          	pushspadd
     87b:	0d          	popsp
     87c:	04          	poppc

0000087d <.L20>:
     87d:	74          	loadsp 16
     87e:	51          	storesp 4

0000087f <.L5>:
     87f:	72          	loadsp 8
     880:	70          	loadsp 0
     881:	84          	im 4
     882:	05          	add
     883:	54          	storesp 16
     884:	08          	load
     885:	71          	loadsp 4
     886:	70          	loadsp 0
     887:	84          	im 4
     888:	05          	add
     889:	53          	storesp 12
     88a:	0c          	store

0000088b <.LM10>:
     88b:	72          	loadsp 8
     88c:	70          	loadsp 0
     88d:	84          	im 4
     88e:	05          	add
     88f:	54          	storesp 16
     890:	08          	load
     891:	71          	loadsp 4
     892:	70          	loadsp 0
     893:	84          	im 4
     894:	05          	add
     895:	53          	storesp 12
     896:	0c          	store

00000897 <.LM11>:
     897:	72          	loadsp 8
     898:	70          	loadsp 0
     899:	84          	im 4
     89a:	05          	add
     89b:	54          	storesp 16
     89c:	08          	load
     89d:	71          	loadsp 4
     89e:	70          	loadsp 0
     89f:	84          	im 4
     8a0:	05          	add
     8a1:	53          	storesp 12
     8a2:	0c          	store

000008a3 <.LM12>:
     8a3:	72          	loadsp 8
     8a4:	70          	loadsp 0
     8a5:	84          	im 4
     8a6:	05          	add
     8a7:	54          	storesp 16
     8a8:	08          	load
     8a9:	71          	loadsp 4
     8aa:	70          	loadsp 0
     8ab:	84          	im 4
     8ac:	05          	add
     8ad:	53          	storesp 12
     8ae:	0c          	store

000008af <.LM13>:
     8af:	f0          	im -16
     8b0:	12          	addsp 8
     8b1:	52          	storesp 8
     8b2:	71          	loadsp 4
     8b3:	8f          	im 15
     8b4:	26          	ulessthan
     8b5:	c9          	im -55
     8b6:	38          	neqbranch

000008b7 <.LM14>:
     8b7:	83          	im 3
     8b8:	72          	loadsp 8
     8b9:	27          	ulessthanorequal
     8ba:	95          	im 21
     8bb:	38          	neqbranch

000008bc <.L22>:
     8bc:	72          	loadsp 8
     8bd:	70          	loadsp 0
     8be:	84          	im 4
     8bf:	05          	add
     8c0:	54          	storesp 16
     8c1:	08          	load
     8c2:	71          	loadsp 4
     8c3:	70          	loadsp 0
     8c4:	84          	im 4
     8c5:	05          	add
     8c6:	53          	storesp 12
     8c7:	0c          	store

000008c8 <.LM16>:
     8c8:	fc          	im -4
     8c9:	12          	addsp 8
     8ca:	52          	storesp 8
     8cb:	71          	loadsp 4
     8cc:	83          	im 3
     8cd:	26          	ulessthan
     8ce:	ed          	im -19
     8cf:	38          	neqbranch

000008d0 <.L15>:
     8d0:	70          	loadsp 0
     8d1:	54          	storesp 16
     8d2:	ff          	im -1
     8d3:	83          	im 3
     8d4:	39          	poppcrel

000008d5 <_puts_r>:
     8d5:	f7          	im -9
     8d6:	3d          	pushspadd
     8d7:	0d          	popsp
     8d8:	7c          	loadsp 48

000008d9 <.LM2>:
     8d9:	70          	loadsp 0
     8da:	52          	storesp 8
     8db:	53          	storesp 12
     8dc:	80          	im 0
     8dd:	ca          	im -54
     8de:	3f          	callpcrel

000008df <.LM3>:
     8df:	72          	loadsp 8
     8e0:	54          	storesp 16

000008e1 <.LM4>:
     8e1:	90          	im 16
     8e2:	08          	load
     8e3:	55          	storesp 20

000008e4 <.LM5>:
     8e4:	0b          	nop
     8e5:	0b          	nop
     8e6:	80          	im 0
     8e7:	ce          	im -50
     8e8:	9c          	im 28
     8e9:	56          	storesp 24

000008ea <.LM6>:
     8ea:	81          	im 1
     8eb:	57          	storesp 28

000008ec <.LM7>:
     8ec:	90          	im 16
     8ed:	08          	load
     8ee:	81          	im 1
     8ef:	05          	add
     8f0:	5a          	storesp 40

000008f1 <.LM8>:
     8f1:	8b          	im 11
     8f2:	3d          	pushspadd
     8f3:	e4          	im -28
     8f4:	11          	addsp 4
     8f5:	59          	storesp 36
     8f6:	53          	storesp 12

000008f7 <.LM9>:
     8f7:	82          	im 2
     8f8:	59          	storesp 36

000008f9 <.LM10>:
     8f9:	f4          	im -12
     8fa:	13          	addsp 12
     8fb:	52          	storesp 8
     8fc:	7b          	loadsp 44
     8fd:	88          	im 8
     8fe:	11          	addsp 4
     8ff:	08          	load
     900:	52          	storesp 8
     901:	53          	storesp 12
     902:	81          	im 1
     903:	83          	im 3
     904:	3f          	callpcrel
     905:	90          	im 16
     906:	08          	load
     907:	30          	neg
     908:	70          	loadsp 0
     909:	90          	im 16
     90a:	08          	load
     90b:	07          	or
     90c:	9f          	im 31
     90d:	2c          	ashiftright
     90e:	8a          	im 10
     90f:	07          	or
     910:	90          	im 16
     911:	0c          	store
     912:	53          	storesp 12

00000913 <.LM11>:
     913:	8b          	im 11
     914:	3d          	pushspadd
     915:	0d          	popsp
     916:	04          	poppc

00000917 <puts>:
     917:	ff          	im -1
     918:	3d          	pushspadd
     919:	0d          	popsp

0000091a <.LM13>:
     91a:	73          	loadsp 12
     91b:	52          	storesp 8
     91c:	80          	im 0
     91d:	cf          	im -49
     91e:	c0          	im -64
     91f:	08          	load
     920:	51          	storesp 4
     921:	ff          	im -1
     922:	b2          	im 50
     923:	3f          	callpcrel

00000924 <.LM14>:
     924:	83          	im 3
     925:	3d          	pushspadd
     926:	0d          	popsp
     927:	04          	poppc

00000928 <strlen>:
     928:	fd          	im -3
     929:	3d          	pushspadd
     92a:	0d          	popsp
     92b:	75          	loadsp 20

0000092c <.LM2>:
     92c:	70          	loadsp 0

0000092d <.LM3>:
     92d:	71          	loadsp 4
     92e:	83          	im 3
     92f:	06          	and
     930:	53          	storesp 12
     931:	55          	storesp 20
     932:	52          	storesp 8
     933:	70          	loadsp 0
     934:	b8          	im 56
     935:	38          	neqbranch

00000936 <.LM4>:
     936:	71          	loadsp 4

00000937 <.LM5>:
     937:	70          	loadsp 0
     938:	08          	load
     939:	70          	loadsp 0
     93a:	09          	not
     93b:	f7          	im -9
     93c:	fb          	im -5
     93d:	fd          	im -3
     93e:	ff          	im -1
     93f:	12          	addsp 8
     940:	06          	and
     941:	70          	loadsp 0
     942:	f8          	im -8
     943:	84          	im 4
     944:	82          	im 2
     945:	81          	im 1
     946:	80          	im 0
     947:	06          	and
     948:	51          	storesp 4
     949:	51          	storesp 4
     94a:	52          	storesp 8
     94b:	53          	storesp 12
     94c:	70          	loadsp 0
     94d:	9d          	im 29
     94e:	38          	neqbranch

0000094f <.L15>:
     94f:	84          	im 4
     950:	13          	addsp 12
     951:	70          	loadsp 0
     952:	08          	load
     953:	70          	loadsp 0
     954:	09          	not
     955:	f7          	im -9
     956:	fb          	im -5
     957:	fd          	im -3
     958:	ff          	im -1
     959:	12          	addsp 8
     95a:	06          	and
     95b:	70          	loadsp 0
     95c:	f8          	im -8
     95d:	84          	im 4
     95e:	82          	im 2
     95f:	81          	im 1
     960:	80          	im 0
     961:	06          	and
     962:	51          	storesp 4
     963:	51          	storesp 4
     964:	52          	storesp 8
     965:	53          	storesp 12
     966:	70          	loadsp 0
     967:	80          	im 0
     968:	2e          	eq
     969:	e5          	im -27
     96a:	38          	neqbranch

0000096b <.L10>:
     96b:	72          	loadsp 8
     96c:	52          	storesp 8

0000096d <.L2>:
     96d:	71          	loadsp 4
     96e:	33          	loadb
     96f:	51          	storesp 4
     970:	70          	loadsp 0
     971:	80          	im 0
     972:	2e          	eq
     973:	8a          	im 10
     974:	38          	neqbranch

00000975 <.L16>:
     975:	81          	im 1
     976:	12          	addsp 8
     977:	70          	loadsp 0
     978:	33          	loadb
     979:	52          	storesp 8
     97a:	52          	storesp 8
     97b:	70          	loadsp 0
     97c:	f8          	im -8
     97d:	38          	neqbranch

0000097e <.L12>:
     97e:	71          	loadsp 4
     97f:	74          	loadsp 16
     980:	31          	sub
     981:	90          	im 16
     982:	0c          	store

00000983 <.LM9>:
     983:	85          	im 5
     984:	3d          	pushspadd
     985:	0d          	popsp
     986:	04          	poppc

00000987 <__sfvwrite>:
     987:	f2          	im -14
     988:	3d          	pushspadd
     989:	0d          	popsp
     98a:	60          	loadsp 64
     98b:	62          	loadsp 72

0000098c <.LM2>:
     98c:	88          	im 8
     98d:	11          	addsp 4
     98e:	08          	load

0000098f <.LM3>:
     98f:	70          	loadsp 0
     990:	57          	storesp 28
     991:	57          	storesp 28
     992:	5f          	storesp 60
     993:	5a          	storesp 40

00000994 <.LM4>:
     994:	74          	loadsp 16
     995:	80          	im 0
     996:	2e          	eq
     997:	81          	im 1
     998:	8f          	im 15
     999:	38          	neqbranch

0000099a <.LM5>:
     99a:	8c          	im 12
     99b:	1a          	addsp 40
     99c:	22          	loadh
     99d:	70          	loadsp 0
     99e:	83          	im 3
     99f:	2a          	lshiftright
     9a0:	81          	im 1
     9a1:	32          	xor
     9a2:	70          	loadsp 0
     9a3:	81          	im 1
     9a4:	06          	and
     9a5:	51          	storesp 4
     9a6:	55          	storesp 20
     9a7:	58          	storesp 32
     9a8:	73          	loadsp 12
     9a9:	86          	im 6
     9aa:	38          	neqbranch
     9ab:	90          	im 16
     9ac:	1a          	addsp 40
     9ad:	08          	load
     9ae:	91          	im 17
     9af:	38          	neqbranch

000009b0 <.L4>:
     9b0:	79          	loadsp 36
     9b1:	51          	storesp 4
     9b2:	90          	im 16
     9b3:	a1          	im 33
     9b4:	3f          	callpcrel

000009b5 <.LM6>:
     9b5:	ff          	im -1
     9b6:	54          	storesp 16

000009b7 <.LM7>:
     9b7:	90          	im 16
     9b8:	08          	load
     9b9:	80          	im 0
     9ba:	ed          	im -19
     9bb:	38          	neqbranch
     9bc:	8c          	im 12
     9bd:	1a          	addsp 40
     9be:	22          	loadh
     9bf:	58          	storesp 32

000009c0 <.L3>:
     9c0:	7d          	loadsp 52
     9c1:	08          	load
     9c2:	57          	storesp 28

000009c3 <.LM9>:
     9c3:	80          	im 0

000009c4 <.LM10>:
     9c4:	78          	loadsp 32
     9c5:	83          	im 3
     9c6:	ff          	im -1
     9c7:	ff          	im -1
     9c8:	06          	and
     9c9:	70          	loadsp 0
     9ca:	81          	im 1
     9cb:	2a          	lshiftright
     9cc:	70          	loadsp 0
     9cd:	81          	im 1
     9ce:	06          	and
     9cf:	51          	storesp 4
     9d0:	56          	storesp 24
     9d1:	57          	storesp 28
     9d2:	55          	storesp 20
     9d3:	73          	loadsp 12
     9d4:	75          	loadsp 20
     9d5:	2e          	eq
     9d6:	80          	im 0
     9d7:	d7          	im -41
     9d8:	38          	neqbranch

000009d9 <.L68>:
     9d9:	74          	loadsp 16
     9da:	90          	im 16
     9db:	38          	neqbranch

000009dc <.L72>:
     9dc:	76          	loadsp 24
     9dd:	08          	load
     9de:	84          	im 4
     9df:	18          	addsp 32
     9e0:	08          	load
     9e1:	88          	im 8
     9e2:	19          	addsp 36
     9e3:	59          	storesp 36
     9e4:	56          	storesp 24
     9e5:	59          	storesp 36
     9e6:	74          	loadsp 16
     9e7:	80          	im 0
     9e8:	2e          	eq
     9e9:	f2          	im -14
     9ea:	38          	neqbranch

000009eb <.L58>:
     9eb:	74          	loadsp 16
     9ec:	54          	storesp 16
     9ed:	88          	im 8
     9ee:	80          	im 0
     9ef:	75          	loadsp 20
     9f0:	27          	ulessthanorequal
     9f1:	84          	im 4
     9f2:	38          	neqbranch
     9f3:	88          	im 8
     9f4:	80          	im 0
     9f5:	54          	storesp 16

000009f6 <.L12>:
     9f6:	73          	loadsp 12
     9f7:	53          	storesp 12
     9f8:	78          	loadsp 32
     9f9:	52          	storesp 8
     9fa:	9c          	im 28
     9fb:	1a          	addsp 40
     9fc:	08          	load
     9fd:	51          	storesp 4
     9fe:	a4          	im 36
     9ff:	1a          	addsp 40
     a00:	08          	load
     a01:	54          	storesp 16
     a02:	73          	loadsp 12
     a03:	2d          	call

00000a04 <.LM13>:
     a04:	80          	im 0
     a05:	0b          	nop
     a06:	90          	im 16
     a07:	08          	load
     a08:	25          	lessthanorequal
     a09:	82          	im 2
     a0a:	e6          	im -26
     a0b:	38          	neqbranch

00000a0c <.LM14>:
     a0c:	90          	im 16
     a0d:	08          	load
     a0e:	19          	addsp 36

00000a0f <.LM15>:
     a0f:	75          	loadsp 20
     a10:	90          	im 16
     a11:	08          	load
     a12:	31          	sub

00000a13 <.LM16>:
     a13:	7f          	loadsp 60
     a14:	88          	im 8
     a15:	05          	add
     a16:	08          	load
     a17:	90          	im 16
     a18:	08          	load
     a19:	31          	sub
     a1a:	70          	loadsp 0
     a1b:	61          	loadsp 68
     a1c:	88          	im 8
     a1d:	05          	add
     a1e:	0c          	store
     a1f:	56          	storesp 24
     a20:	56          	storesp 24
     a21:	59          	storesp 36
     a22:	73          	loadsp 12
     a23:	ff          	im -1
     a24:	b4          	im 52
     a25:	38          	neqbranch

00000a26 <.L15>:
     a26:	80          	im 0
     a27:	54          	storesp 16

00000a28 <.L1>:
     a28:	73          	loadsp 12
     a29:	90          	im 16
     a2a:	0c          	store
     a2b:	90          	im 16
     a2c:	3d          	pushspadd
     a2d:	0d          	popsp
     a2e:	04          	poppc

00000a2f <.L5>:
     a2f:	75          	loadsp 20
     a30:	81          	im 1
     a31:	32          	xor
     a32:	70          	loadsp 0
     a33:	81          	im 1
     a34:	06          	and

00000a35 <.LM20>:
     a35:	76          	loadsp 24
     a36:	41          	storesp 68
     a37:	51          	storesp 4
     a38:	54          	storesp 16

00000a39 <.LM21>:
     a39:	73          	loadsp 12
     a3a:	80          	im 0
     a3b:	2e          	eq
     a3c:	81          	im 1
     a3d:	c1          	im -63
     a3e:	38          	neqbranch

00000a3f <.L69>:
     a3f:	74          	loadsp 16
     a40:	90          	im 16
     a41:	38          	neqbranch

00000a42 <.L73>:
     a42:	76          	loadsp 24
     a43:	08          	load
     a44:	84          	im 4
     a45:	18          	addsp 32
     a46:	08          	load
     a47:	88          	im 8
     a48:	19          	addsp 36
     a49:	59          	storesp 36
     a4a:	56          	storesp 24
     a4b:	59          	storesp 36
     a4c:	74          	loadsp 16
     a4d:	80          	im 0
     a4e:	2e          	eq
     a4f:	f2          	im -14
     a50:	38          	neqbranch

00000a51 <.L60>:
     a51:	88          	im 8
     a52:	1a          	addsp 40
     a53:	08          	load

00000a54 <.LM24>:
     a54:	78          	loadsp 32
     a55:	83          	im 3
     a56:	ff          	im -1
     a57:	ff          	im -1
     a58:	06          	and
     a59:	70          	loadsp 0
     a5a:	89          	im 9
     a5b:	2a          	lshiftright
     a5c:	70          	loadsp 0
     a5d:	81          	im 1
     a5e:	06          	and
     a5f:	51          	storesp 4
     a60:	56          	storesp 24
     a61:	59          	storesp 36
     a62:	56          	storesp 24
     a63:	73          	loadsp 12
     a64:	80          	im 0
     a65:	2e          	eq
     a66:	82          	im 2
     a67:	fa          	im -6
     a68:	38          	neqbranch

00000a69 <.LM25>:
     a69:	75          	loadsp 20
     a6a:	75          	loadsp 20
     a6b:	27          	ulessthanorequal
     a6c:	8d          	im 13
     a6d:	38          	neqbranch
     a6e:	77          	loadsp 28
     a6f:	87          	im 7
     a70:	2a          	lshiftright
     a71:	70          	loadsp 0
     a72:	81          	im 1
     a73:	06          	and
     a74:	51          	storesp 4
     a75:	54          	storesp 16
     a76:	73          	loadsp 12
     a77:	82          	im 2
     a78:	b5          	im 53
     a79:	38          	neqbranch

00000a7a <.L24>:
     a7a:	74          	loadsp 16
     a7b:	76          	loadsp 24
     a7c:	27          	ulessthanorequal
     a7d:	83          	im 3
     a7e:	38          	neqbranch

00000a7f <.LM27>:
     a7f:	74          	loadsp 16
     a80:	56          	storesp 24

00000a81 <.L26>:
     a81:	75          	loadsp 20
     a82:	53          	storesp 12
     a83:	78          	loadsp 32
     a84:	52          	storesp 8
     a85:	79          	loadsp 36
     a86:	08          	load
     a87:	51          	storesp 4
     a88:	85          	im 5
     a89:	82          	im 2
     a8a:	3f          	callpcrel

00000a8b <.LM29>:
     a8b:	88          	im 8
     a8c:	1a          	addsp 40
     a8d:	08          	load
     a8e:	76          	loadsp 24
     a8f:	31          	sub
     a90:	88          	im 8
     a91:	1b          	addsp 44
     a92:	0c          	store

00000a93 <.LM30>:
     a93:	79          	loadsp 36
     a94:	08          	load
     a95:	16          	addsp 24
     a96:	7a          	loadsp 40
     a97:	0c          	store

00000a98 <.LM31>:
     a98:	74          	loadsp 16
     a99:	56          	storesp 24

00000a9a <.L27>:
     a9a:	75          	loadsp 20
     a9b:	19          	addsp 36

00000a9c <.LM33>:
     a9c:	75          	loadsp 20
     a9d:	77          	loadsp 28
     a9e:	31          	sub

00000a9f <.LM34>:
     a9f:	7f          	loadsp 60
     aa0:	88          	im 8
     aa1:	05          	add
     aa2:	08          	load
     aa3:	78          	loadsp 32
     aa4:	31          	sub
     aa5:	70          	loadsp 0
     aa6:	61          	loadsp 68
     aa7:	88          	im 8
     aa8:	05          	add
     aa9:	0c          	store
     aaa:	56          	storesp 24
     aab:	56          	storesp 24
     aac:	59          	storesp 36
     aad:	73          	loadsp 12
     aae:	80          	im 0
     aaf:	2e          	eq
     ab0:	fe          	im -2
     ab1:	f4          	im -12
     ab2:	38          	neqbranch
     ab3:	8c          	im 12
     ab4:	1a          	addsp 40
     ab5:	22          	loadh
     ab6:	58          	storesp 32
     ab7:	ff          	im -1
     ab8:	86          	im 6
     ab9:	39          	poppcrel

00000aba <.L52>:
     aba:	77          	loadsp 28

00000abb <.LM36>:
     abb:	78          	loadsp 32
     abc:	54          	storesp 16
     abd:	79          	loadsp 36
     abe:	53          	storesp 12
     abf:	7b          	loadsp 44
     ac0:	52          	storesp 8
     ac1:	56          	storesp 24
     ac2:	84          	im 4
     ac3:	c8          	im -56
     ac4:	3f          	callpcrel

00000ac5 <.LM37>:
     ac5:	88          	im 8
     ac6:	1a          	addsp 40
     ac7:	08          	load
     ac8:	78          	loadsp 32
     ac9:	31          	sub
     aca:	88          	im 8
     acb:	1b          	addsp 44
     acc:	0c          	store

00000acd <.LM38>:
     acd:	79          	loadsp 36
     ace:	08          	load
     acf:	18          	addsp 32
     ad0:	7a          	loadsp 40
     ad1:	0c          	store

00000ad2 <.L51>:
     ad2:	7c          	loadsp 48
     ad3:	76          	loadsp 24
     ad4:	31          	sub
     ad5:	5d          	storesp 52
     ad6:	7c          	loadsp 48
     ad7:	8e          	im 14
     ad8:	38          	neqbranch

00000ad9 <.L76>:
     ad9:	79          	loadsp 36
     ada:	51          	storesp 4
     adb:	8f          	im 15
     adc:	db          	im -37
     add:	3f          	callpcrel
     ade:	90          	im 16
     adf:	08          	load
     ae0:	81          	im 1
     ae1:	8f          	im 15
     ae2:	38          	neqbranch

00000ae3 <.LM41>:
     ae3:	90          	im 16
     ae4:	08          	load
     ae5:	5f          	storesp 60

00000ae6 <.L55>:
     ae6:	75          	loadsp 20
     ae7:	19          	addsp 36

00000ae8 <.LM43>:
     ae8:	75          	loadsp 20
     ae9:	77          	loadsp 28
     aea:	31          	sub

00000aeb <.LM44>:
     aeb:	7f          	loadsp 60
     aec:	88          	im 8
     aed:	05          	add
     aee:	08          	load
     aef:	78          	loadsp 32
     af0:	31          	sub
     af1:	70          	loadsp 0
     af2:	61          	loadsp 68
     af3:	88          	im 8
     af4:	05          	add
     af5:	0c          	store
     af6:	56          	storesp 24
     af7:	56          	storesp 24
     af8:	59          	storesp 36
     af9:	73          	loadsp 12
     afa:	80          	im 0
     afb:	2e          	eq
     afc:	fe          	im -2
     afd:	a8          	im 40
     afe:	38          	neqbranch

00000aff <.L37>:
     aff:	74          	loadsp 16
     b00:	81          	im 1
     b01:	83          	im 3
     b02:	38          	neqbranch

00000b03 <.L42>:
     b03:	76          	loadsp 24
     b04:	08          	load
     b05:	84          	im 4
     b06:	18          	addsp 32
     b07:	08          	load
     b08:	88          	im 8
     b09:	19          	addsp 36
     b0a:	59          	storesp 36
     b0b:	56          	storesp 24
     b0c:	59          	storesp 36
     b0d:	74          	loadsp 16
     b0e:	80          	im 0
     b0f:	2e          	eq
     b10:	f2          	im -14
     b11:	38          	neqbranch

00000b12 <.L65>:
     b12:	74          	loadsp 16
     b13:	53          	storesp 12
     b14:	8a          	im 10
     b15:	52          	storesp 8
     b16:	78          	loadsp 32
     b17:	51          	storesp 4
     b18:	82          	im 2
     b19:	d3          	im -45
     b1a:	3f          	callpcrel

00000b1b <.LM47>:
     b1b:	90          	im 16
     b1c:	08          	load
     b1d:	79          	loadsp 36
     b1e:	31          	sub
     b1f:	81          	im 1
     b20:	05          	add
     b21:	5d          	storesp 52
     b22:	90          	im 16
     b23:	08          	load
     b24:	84          	im 4
     b25:	38          	neqbranch
     b26:	81          	im 1
     b27:	15          	addsp 20
     b28:	5d          	storesp 52

00000b29 <.L45>:
     b29:	81          	im 1
     b2a:	5f          	storesp 60

00000b2b <.L43>:
     b2b:	7c          	loadsp 48
     b2c:	58          	storesp 32
     b2d:	74          	loadsp 16
     b2e:	7d          	loadsp 52
     b2f:	27          	ulessthanorequal
     b30:	83          	im 3
     b31:	38          	neqbranch
     b32:	74          	loadsp 16
     b33:	58          	storesp 32

00000b34 <.L46>:
     b34:	94          	im 20
     b35:	1a          	addsp 40
     b36:	08          	load
     b37:	88          	im 8
     b38:	1b          	addsp 44
     b39:	08          	load
     b3a:	11          	addsp 4
     b3b:	57          	storesp 28
     b3c:	5c          	storesp 48

00000b3d <.LM51>:
     b3d:	80          	im 0
     b3e:	7a          	loadsp 40
     b3f:	08          	load
     b40:	5c          	storesp 48
     b41:	54          	storesp 16
     b42:	90          	im 16
     b43:	1a          	addsp 40
     b44:	08          	load
     b45:	7b          	loadsp 44
     b46:	27          	ulessthanorequal
     b47:	83          	im 3
     b48:	38          	neqbranch
     b49:	81          	im 1
     b4a:	54          	storesp 16

00000b4b <.L48>:
     b4b:	75          	loadsp 20
     b4c:	78          	loadsp 32
     b4d:	25          	lessthanorequal
     b4e:	84          	im 4
     b4f:	38          	neqbranch
     b50:	73          	loadsp 12
     b51:	ba          	im 58
     b52:	38          	neqbranch

00000b53 <.L47>:
     b53:	7b          	loadsp 44
     b54:	78          	loadsp 32
     b55:	24          	lessthan
     b56:	fe          	im -2
     b57:	e2          	im -30
     b58:	38          	neqbranch

00000b59 <.LM53>:
     b59:	7b          	loadsp 44
     b5a:	53          	storesp 12
     b5b:	78          	loadsp 32
     b5c:	52          	storesp 8
     b5d:	9c          	im 28
     b5e:	1a          	addsp 40
     b5f:	08          	load
     b60:	51          	storesp 4
     b61:	a4          	im 36
     b62:	1a          	addsp 40
     b63:	08          	load
     b64:	54          	storesp 16
     b65:	73          	loadsp 12
     b66:	2d          	call
     b67:	90          	im 16
     b68:	08          	load
     b69:	56          	storesp 24

00000b6a <.LM54>:
     b6a:	90          	im 16
     b6b:	08          	load
     b6c:	80          	im 0
     b6d:	24          	lessthan
     b6e:	fe          	im -2
     b6f:	e2          	im -30
     b70:	38          	neqbranch

00000b71 <.L14>:
     b71:	8c          	im 12
     b72:	1a          	addsp 40
     b73:	22          	loadh
     b74:	80          	im 0
     b75:	c0          	im -64
     b76:	07          	or
     b77:	54          	storesp 16
     b78:	73          	loadsp 12
     b79:	8c          	im 12
     b7a:	1b          	addsp 44
     b7b:	23          	storeh

00000b7c <.LM56>:
     b7c:	ff          	im -1
     b7d:	54          	storesp 16

00000b7e <.L78>:
     b7e:	73          	loadsp 12
     b7f:	90          	im 16
     b80:	0c          	store
     b81:	90          	im 16
     b82:	3d          	pushspadd
     b83:	0d          	popsp
     b84:	04          	poppc

00000b85 <.L62>:
     b85:	7e          	loadsp 56
     b86:	ff          	im -1
     b87:	a3          	im 35
     b88:	38          	neqbranch
     b89:	ff          	im -1
     b8a:	87          	im 7
     b8b:	39          	poppcrel

00000b8c <.L75>:
     b8c:	75          	loadsp 20
     b8d:	53          	storesp 12
     b8e:	78          	loadsp 32
     b8f:	52          	storesp 8
     b90:	7a          	loadsp 40
     b91:	51          	storesp 4
     b92:	82          	im 2
     b93:	f8          	im -8
     b94:	3f          	callpcrel

00000b95 <.LM60>:
     b95:	79          	loadsp 36
     b96:	08          	load
     b97:	16          	addsp 24
     b98:	7a          	loadsp 40
     b99:	0c          	store

00000b9a <.LM61>:
     b9a:	79          	loadsp 36
     b9b:	51          	storesp 4
     b9c:	8e          	im 14
     b9d:	9a          	im 26
     b9e:	3f          	callpcrel
     b9f:	90          	im 16
     ba0:	08          	load
     ba1:	cf          	im -49
     ba2:	38          	neqbranch

00000ba3 <.LM62>:
     ba3:	7c          	loadsp 48
     ba4:	76          	loadsp 24
     ba5:	31          	sub
     ba6:	5d          	storesp 52
     ba7:	7c          	loadsp 48
     ba8:	fe          	im -2
     ba9:	bc          	im 60
     baa:	38          	neqbranch
     bab:	fe          	im -2
     bac:	ac          	im 44
     bad:	39          	poppcrel

00000bae <.L74>:
     bae:	90          	im 16
     baf:	1a          	addsp 40
     bb0:	08          	load
     bb1:	7a          	loadsp 40
     bb2:	08          	load
     bb3:	71          	loadsp 4
     bb4:	31          	sub

00000bb5 <.LM64>:
     bb5:	76          	loadsp 24
     bb6:	11          	addsp 4
     bb7:	70          	loadsp 0
     bb8:	56          	storesp 24
     bb9:	5a          	storesp 40
     bba:	57          	storesp 28
     bbb:	52          	storesp 8
     bbc:	80          	im 0
     bbd:	cf          	im -49
     bbe:	c0          	im -64
     bbf:	08          	load
     bc0:	51          	storesp 4
     bc1:	84          	im 4
     bc2:	8c          	im 12
     bc3:	3f          	callpcrel

00000bc4 <.LM65>:
     bc4:	90          	im 16
     bc5:	08          	load
     bc6:	80          	im 0
     bc7:	2e          	eq
     bc8:	ff          	im -1
     bc9:	a7          	im 39
     bca:	38          	neqbranch

00000bcb <.LM66>:
     bcb:	90          	im 16
     bcc:	08          	load
     bcd:	90          	im 16
     bce:	1b          	addsp 44
     bcf:	0c          	store

00000bd0 <.LM67>:
     bd0:	90          	im 16
     bd1:	08          	load
     bd2:	16          	addsp 24
     bd3:	7a          	loadsp 40
     bd4:	0c          	store

00000bd5 <.LM68>:
     bd5:	77          	loadsp 28
     bd6:	94          	im 20
     bd7:	1b          	addsp 44
     bd8:	0c          	store

00000bd9 <.LM69>:
     bd9:	74          	loadsp 16
     bda:	88          	im 8
     bdb:	1b          	addsp 44
     bdc:	0c          	store
     bdd:	74          	loadsp 16
     bde:	56          	storesp 24
     bdf:	fd          	im -3
     be0:	99          	im 25
     be1:	39          	poppcrel

00000be2 <.L23>:
     be2:	79          	loadsp 36
     be3:	08          	load
     be4:	58          	storesp 32
     be5:	90          	im 16
     be6:	1a          	addsp 40
     be7:	08          	load
     be8:	78          	loadsp 32
     be9:	27          	ulessthanorequal
     bea:	83          	im 3
     beb:	38          	neqbranch
     bec:	81          	im 1
     bed:	54          	storesp 16

00000bee <.L29>:
     bee:	75          	loadsp 20
     bef:	75          	loadsp 20
     bf0:	27          	ulessthanorequal
     bf1:	84          	im 4
     bf2:	38          	neqbranch
     bf3:	73          	loadsp 12
     bf4:	b3          	im 51
     bf5:	38          	neqbranch

00000bf6 <.L28>:
     bf6:	94          	im 20
     bf7:	1a          	addsp 40
     bf8:	08          	load
     bf9:	56          	storesp 24
     bfa:	75          	loadsp 20
     bfb:	75          	loadsp 20
     bfc:	26          	ulessthan
     bfd:	80          	im 0
     bfe:	d3          	im -45
     bff:	38          	neqbranch

00000c00 <.LM72>:
     c00:	75          	loadsp 20
     c01:	53          	storesp 12
     c02:	78          	loadsp 32
     c03:	52          	storesp 8
     c04:	9c          	im 28
     c05:	1a          	addsp 40
     c06:	08          	load
     c07:	51          	storesp 4
     c08:	a4          	im 36
     c09:	1a          	addsp 40
     c0a:	08          	load
     c0b:	54          	storesp 16
     c0c:	73          	loadsp 12
     c0d:	2d          	call
     c0e:	90          	im 16
     c0f:	08          	load
     c10:	56          	storesp 24

00000c11 <.LM73>:
     c11:	90          	im 16
     c12:	08          	load
     c13:	80          	im 0
     c14:	24          	lessthan
     c15:	fd          	im -3
     c16:	83          	im 3
     c17:	38          	neqbranch

00000c18 <.LM74>:
     c18:	8c          	im 12
     c19:	1a          	addsp 40
     c1a:	22          	loadh
     c1b:	80          	im 0
     c1c:	c0          	im -64
     c1d:	07          	or
     c1e:	54          	storesp 16
     c1f:	73          	loadsp 12
     c20:	8c          	im 12
     c21:	1b          	addsp 44
     c22:	23          	storeh

00000c23 <.LM75>:
     c23:	ff          	im -1
     c24:	54          	storesp 16
     c25:	fe          	im -2
     c26:	d7          	im -41
     c27:	39          	poppcrel

00000c28 <.L77>:
     c28:	75          	loadsp 20
     c29:	53          	storesp 12
     c2a:	78          	loadsp 32
     c2b:	52          	storesp 8
     c2c:	77          	loadsp 28
     c2d:	51          	storesp 4
     c2e:	81          	im 1
     c2f:	dc          	im -36
     c30:	3f          	callpcrel

00000c31 <.LM77>:
     c31:	79          	loadsp 36
     c32:	08          	load
     c33:	16          	addsp 24
     c34:	7a          	loadsp 40
     c35:	0c          	store

00000c36 <.LM78>:
     c36:	79          	loadsp 36
     c37:	51          	storesp 4
     c38:	8c          	im 12
     c39:	fe          	im -2
     c3a:	3f          	callpcrel
     c3b:	90          	im 16
     c3c:	08          	load
     c3d:	80          	im 0
     c3e:	2e          	eq
     c3f:	fc          	im -4
     c40:	d9          	im -39
     c41:	38          	neqbranch

00000c42 <.LM79>:
     c42:	8c          	im 12
     c43:	1a          	addsp 40
     c44:	22          	loadh
     c45:	80          	im 0
     c46:	c0          	im -64
     c47:	07          	or
     c48:	54          	storesp 16
     c49:	73          	loadsp 12
     c4a:	8c          	im 12
     c4b:	1b          	addsp 44
     c4c:	23          	storeh

00000c4d <.LM80>:
     c4d:	ff          	im -1
     c4e:	54          	storesp 16
     c4f:	fe          	im -2
     c50:	ad          	im 45
     c51:	39          	poppcrel

00000c52 <.L33>:
     c52:	74          	loadsp 16

00000c53 <.LM82>:
     c53:	75          	loadsp 20
     c54:	54          	storesp 16
     c55:	79          	loadsp 36
     c56:	53          	storesp 12
     c57:	78          	loadsp 32
     c58:	52          	storesp 8
     c59:	56          	storesp 24
     c5a:	81          	im 1
     c5b:	b0          	im 48
     c5c:	3f          	callpcrel

00000c5d <.LM83>:
     c5d:	88          	im 8
     c5e:	1a          	addsp 40
     c5f:	08          	load
     c60:	75          	loadsp 20
     c61:	31          	sub
     c62:	88          	im 8
     c63:	1b          	addsp 44
     c64:	0c          	store

00000c65 <.LM84>:
     c65:	79          	loadsp 36
     c66:	08          	load
     c67:	15          	addsp 20
     c68:	7a          	loadsp 40
     c69:	0c          	store
     c6a:	fc          	im -4
     c6b:	ae          	im 46
     c6c:	39          	poppcrel

00000c6d <memchr>:
     c6d:	fa          	im -6
     c6e:	3d          	pushspadd
     c6f:	0d          	popsp
     c70:	7a          	loadsp 40

00000c71 <.LM2>:
     c71:	79          	loadsp 36

00000c72 <.LM3>:
     c72:	02          	pushsp
     c73:	88          	im 8
     c74:	05          	add
     c75:	a7          	im 39
     c76:	05          	add
     c77:	33          	loadb
     c78:	56          	storesp 24
     c79:	52          	storesp 8
     c7a:	53          	storesp 12

00000c7b <.LM4>:
     c7b:	83          	im 3
     c7c:	73          	loadsp 12
     c7d:	27          	ulessthanorequal
     c7e:	8a          	im 10
     c7f:	38          	neqbranch
     c80:	70          	loadsp 0
     c81:	83          	im 3
     c82:	06          	and
     c83:	52          	storesp 8
     c84:	71          	loadsp 4
     c85:	80          	im 0
     c86:	2e          	eq
     c87:	a8          	im 40
     c88:	38          	neqbranch

00000c89 <.L2>:
     c89:	ff          	im -1
     c8a:	13          	addsp 12
     c8b:	53          	storesp 12
     c8c:	72          	loadsp 8
     c8d:	ff          	im -1
     c8e:	2e          	eq
     c8f:	97          	im 23
     c90:	38          	neqbranch

00000c91 <.L30>:
     c91:	70          	loadsp 0
     c92:	33          	loadb
     c93:	52          	storesp 8
     c94:	73          	loadsp 12
     c95:	72          	loadsp 8
     c96:	2e          	eq
     c97:	91          	im 17
     c98:	38          	neqbranch

00000c99 <.LM7>:
     c99:	81          	im 1
     c9a:	11          	addsp 4
     c9b:	ff          	im -1
     c9c:	14          	addsp 16
     c9d:	54          	storesp 16
     c9e:	51          	storesp 4
     c9f:	72          	loadsp 8
     ca0:	ff          	im -1
     ca1:	2e          	eq
     ca2:	09          	not
     ca3:	81          	im 1
     ca4:	06          	and
     ca5:	eb          	im -21
     ca6:	38          	neqbranch

00000ca7 <.L26>:
     ca7:	80          	im 0
     ca8:	51          	storesp 4

00000ca9 <.L1>:
     ca9:	70          	loadsp 0
     caa:	90          	im 16
     cab:	0c          	store
     cac:	88          	im 8
     cad:	3d          	pushspadd
     cae:	0d          	popsp
     caf:	04          	poppc

00000cb0 <.L29>:
     cb0:	70          	loadsp 0

00000cb1 <.LM11>:
     cb1:	72          	loadsp 8
     cb2:	57          	storesp 28
     cb3:	55          	storesp 20
     cb4:	83          	im 3
     cb5:	51          	storesp 4

00000cb6 <.L6>:
     cb6:	75          	loadsp 20
     cb7:	82          	im 2
     cb8:	80          	im 0
     cb9:	29          	mult
     cba:	14          	addsp 16

00000cbb <.LM13>:
     cbb:	ff          	im -1
     cbc:	12          	addsp 8
     cbd:	52          	storesp 8
     cbe:	56          	storesp 24
     cbf:	70          	loadsp 0
     cc0:	80          	im 0
     cc1:	25          	lessthanorequal
     cc2:	f3          	im -13
     cc3:	38          	neqbranch

00000cc4 <.LM14>:
     cc4:	83          	im 3
     cc5:	73          	loadsp 12
     cc6:	27          	ulessthanorequal
     cc7:	bf          	im 63
     cc8:	38          	neqbranch

00000cc9 <.L31>:
     cc9:	74          	loadsp 16
     cca:	08          	load
     ccb:	76          	loadsp 24
     ccc:	32          	xor

00000ccd <.LM16>:
     ccd:	70          	loadsp 0
     cce:	09          	not
     ccf:	f7          	im -9
     cd0:	fb          	im -5
     cd1:	fd          	im -3
     cd2:	ff          	im -1
     cd3:	12          	addsp 8
     cd4:	06          	and
     cd5:	70          	loadsp 0
     cd6:	f8          	im -8
     cd7:	84          	im 4
     cd8:	82          	im 2
     cd9:	81          	im 1
     cda:	80          	im 0
     cdb:	06          	and
     cdc:	51          	storesp 4
     cdd:	51          	storesp 4
     cde:	51          	storesp 4
     cdf:	70          	loadsp 0
     ce0:	80          	im 0
     ce1:	2e          	eq
     ce2:	99          	im 25
     ce3:	38          	neqbranch

00000ce4 <.LM17>:
     ce4:	74          	loadsp 16
     ce5:	51          	storesp 4

00000ce6 <.LM18>:
     ce6:	80          	im 0
     ce7:	52          	storesp 8

00000ce8 <.L14>:
     ce8:	70          	loadsp 0
     ce9:	33          	loadb
     cea:	57          	storesp 28
     ceb:	73          	loadsp 12
     cec:	77          	loadsp 28
     ced:	2e          	eq
     cee:	ff          	im -1
     cef:	b9          	im 57
     cf0:	38          	neqbranch

00000cf1 <.LM20>:
     cf1:	81          	im 1
     cf2:	11          	addsp 4

00000cf3 <.LM21>:
     cf3:	81          	im 1
     cf4:	13          	addsp 12
     cf5:	53          	storesp 12
     cf6:	51          	storesp 4
     cf7:	83          	im 3
     cf8:	72          	loadsp 8
     cf9:	27          	ulessthanorequal
     cfa:	ed          	im -19
     cfb:	38          	neqbranch

00000cfc <.L9>:
     cfc:	fc          	im -4
     cfd:	13          	addsp 12

00000cfe <.LM23>:
     cfe:	84          	im 4
     cff:	16          	addsp 24
     d00:	56          	storesp 24
     d01:	53          	storesp 12
     d02:	72          	loadsp 8
     d03:	83          	im 3
     d04:	26          	ulessthan
     d05:	c3          	im -61
     d06:	38          	neqbranch

00000d07 <.L23>:
     d07:	74          	loadsp 16
     d08:	51          	storesp 4
     d09:	fe          	im -2
     d0a:	fe          	im -2
     d0b:	39          	poppcrel

00000d0c <memmove>:
     d0c:	fa          	im -6
     d0d:	3d          	pushspadd
     d0e:	0d          	popsp
     d0f:	78          	loadsp 32
     d10:	7a          	loadsp 40
     d11:	7c          	loadsp 48

00000d12 <.LM2>:
     d12:	72          	loadsp 8

00000d13 <.LM3>:
     d13:	72          	loadsp 8

00000d14 <.LM4>:
     d14:	72          	loadsp 8
     d15:	57          	storesp 28
     d16:	57          	storesp 28
     d17:	57          	storesp 28
     d18:	59          	storesp 36
     d19:	56          	storesp 24
     d1a:	56          	storesp 24

00000d1b <.LM5>:
     d1b:	74          	loadsp 16
     d1c:	76          	loadsp 24
     d1d:	27          	ulessthanorequal
     d1e:	b2          	im 50
     d1f:	38          	neqbranch
     d20:	76          	loadsp 24
     d21:	15          	addsp 20
     d22:	51          	storesp 4
     d23:	75          	loadsp 20
     d24:	71          	loadsp 4
     d25:	27          	ulessthanorequal
     d26:	aa          	im 42
     d27:	38          	neqbranch

00000d28 <.LM6>:
     d28:	70          	loadsp 0

00000d29 <.LM7>:
     d29:	77          	loadsp 28
     d2a:	17          	addsp 28

00000d2b <.LM8>:
     d2b:	ff          	im -1
     d2c:	14          	addsp 16
     d2d:	54          	storesp 16
     d2e:	55          	storesp 20
     d2f:	53          	storesp 12
     d30:	71          	loadsp 4
     d31:	ff          	im -1
     d32:	2e          	eq
     d33:	96          	im 22
     d34:	38          	neqbranch

00000d35 <.L27>:
     d35:	ff          	im -1
     d36:	14          	addsp 16
     d37:	ff          	im -1
     d38:	14          	addsp 16
     d39:	54          	storesp 16
     d3a:	54          	storesp 16
     d3b:	72          	loadsp 8
     d3c:	33          	loadb
     d3d:	74          	loadsp 16
     d3e:	34          	storeb
     d3f:	ff          	im -1
     d40:	12          	addsp 8
     d41:	52          	storesp 8
     d42:	71          	loadsp 4
     d43:	ff          	im -1
     d44:	2e          	eq
     d45:	09          	not
     d46:	81          	im 1
     d47:	06          	and
     d48:	ec          	im -20
     d49:	38          	neqbranch

00000d4a <.L6>:
     d4a:	75          	loadsp 20
     d4b:	90          	im 16
     d4c:	0c          	store
     d4d:	88          	im 8
     d4e:	3d          	pushspadd
     d4f:	0d          	popsp
     d50:	04          	poppc

00000d51 <.L2>:
     d51:	76          	loadsp 24
     d52:	8f          	im 15
     d53:	26          	ulessthan
     d54:	97          	im 23
     d55:	38          	neqbranch

00000d56 <.L7>:
     d56:	ff          	im -1
     d57:	12          	addsp 8
     d58:	52          	storesp 8
     d59:	71          	loadsp 4
     d5a:	ff          	im -1
     d5b:	2e          	eq
     d5c:	ed          	im -19
     d5d:	38          	neqbranch
     d5e:	72          	loadsp 8
     d5f:	70          	loadsp 0
     d60:	81          	im 1
     d61:	05          	add
     d62:	54          	storesp 16
     d63:	33          	loadb
     d64:	74          	loadsp 16
     d65:	70          	loadsp 0
     d66:	81          	im 1
     d67:	05          	add
     d68:	56          	storesp 24
     d69:	34          	storeb
     d6a:	eb          	im -21
     d6b:	39          	poppcrel

00000d6c <.L28>:
     d6c:	74          	loadsp 16
     d6d:	76          	loadsp 24
     d6e:	07          	or
     d6f:	83          	im 3
     d70:	06          	and
     d71:	51          	storesp 4
     d72:	70          	loadsp 0
     d73:	e2          	im -30
     d74:	38          	neqbranch

00000d75 <.LM13>:
     d75:	75          	loadsp 20

00000d76 <.LM14>:
     d76:	75          	loadsp 20
     d77:	54          	storesp 16
     d78:	51          	storesp 4

00000d79 <.L10>:
     d79:	72          	loadsp 8
     d7a:	70          	loadsp 0
     d7b:	84          	im 4
     d7c:	05          	add
     d7d:	54          	storesp 16
     d7e:	08          	load
     d7f:	71          	loadsp 4
     d80:	70          	loadsp 0
     d81:	84          	im 4
     d82:	05          	add
     d83:	53          	storesp 12
     d84:	0c          	store

00000d85 <.LM16>:
     d85:	72          	loadsp 8
     d86:	70          	loadsp 0
     d87:	84          	im 4
     d88:	05          	add
     d89:	54          	storesp 16
     d8a:	08          	load
     d8b:	71          	loadsp 4
     d8c:	70          	loadsp 0
     d8d:	84          	im 4
     d8e:	05          	add
     d8f:	53          	storesp 12
     d90:	0c          	store

00000d91 <.LM17>:
     d91:	72          	loadsp 8
     d92:	70          	loadsp 0
     d93:	84          	im 4
     d94:	05          	add
     d95:	54          	storesp 16
     d96:	08          	load
     d97:	71          	loadsp 4
     d98:	70          	loadsp 0
     d99:	84          	im 4
     d9a:	05          	add
     d9b:	53          	storesp 12
     d9c:	0c          	store

00000d9d <.LM18>:
     d9d:	72          	loadsp 8
     d9e:	70          	loadsp 0
     d9f:	84          	im 4
     da0:	05          	add
     da1:	54          	storesp 16
     da2:	08          	load
     da3:	71          	loadsp 4
     da4:	70          	loadsp 0
     da5:	84          	im 4
     da6:	05          	add
     da7:	53          	storesp 12
     da8:	0c          	store

00000da9 <.LM19>:
     da9:	f0          	im -16
     daa:	12          	addsp 8
     dab:	52          	storesp 8
     dac:	71          	loadsp 4
     dad:	8f          	im 15
     dae:	26          	ulessthan
     daf:	c9          	im -55
     db0:	38          	neqbranch

00000db1 <.LM20>:
     db1:	83          	im 3
     db2:	72          	loadsp 8
     db3:	27          	ulessthanorequal
     db4:	95          	im 21
     db5:	38          	neqbranch

00000db6 <.L29>:
     db6:	72          	loadsp 8
     db7:	70          	loadsp 0
     db8:	84          	im 4
     db9:	05          	add
     dba:	54          	storesp 16
     dbb:	08          	load
     dbc:	71          	loadsp 4
     dbd:	70          	loadsp 0
     dbe:	84          	im 4
     dbf:	05          	add
     dc0:	53          	storesp 12
     dc1:	0c          	store

00000dc2 <.LM22>:
     dc2:	fc          	im -4
     dc3:	12          	addsp 8
     dc4:	52          	storesp 8
     dc5:	71          	loadsp 4
     dc6:	83          	im 3
     dc7:	26          	ulessthan
     dc8:	ed          	im -19
     dc9:	38          	neqbranch

00000dca <.L22>:
     dca:	70          	loadsp 0
     dcb:	54          	storesp 16
     dcc:	ff          	im -1
     dcd:	88          	im 8
     dce:	39          	poppcrel

00000dcf <_realloc_r>:
     dcf:	ef          	im -17
     dd0:	3d          	pushspadd
     dd1:	0d          	popsp
     dd2:	63          	loadsp 76
     dd3:	65          	loadsp 84
     dd4:	67          	loadsp 92
     dd5:	40          	storesp 64
     dd6:	5d          	storesp 52
     dd7:	42          	storesp 72

00000dd8 <.LM2>:
     dd8:	7b          	loadsp 44
     dd9:	80          	im 0
     dda:	2e          	eq
     ddb:	84          	im 4
     ddc:	fa          	im -6
     ddd:	38          	neqbranch

00000dde <.LM3>:
     dde:	61          	loadsp 68
     ddf:	51          	storesp 4
     de0:	a5          	im 37
     de1:	b4          	im 52
     de2:	3f          	callpcrel

00000de3 <.LM4>:
     de3:	f8          	im -8
     de4:	1c          	addsp 48
     de5:	70          	loadsp 0

00000de6 <.LM5>:
     de6:	84          	im 4
     de7:	12          	addsp 8
     de8:	08          	load
     de9:	70          	loadsp 0
     dea:	fc          	im -4
     deb:	06          	and
     dec:	70          	loadsp 0

00000ded <.LM6>:
     ded:	62          	loadsp 72
     dee:	8b          	im 11
     def:	05          	add
     df0:	70          	loadsp 0
     df1:	f8          	im -8
     df2:	06          	and
     df3:	41          	storesp 68
     df4:	59          	storesp 36
     df5:	45          	storesp 84
     df6:	5b          	storesp 44
     df7:	5c          	storesp 48
     df8:	41          	storesp 68
     df9:	57          	storesp 28
     dfa:	96          	im 22
     dfb:	74          	loadsp 16
     dfc:	27          	ulessthanorequal
     dfd:	82          	im 2
     dfe:	c3          	im -61
     dff:	38          	neqbranch

00000e00 <.L4>:
     e00:	80          	im 0
     e01:	7b          	loadsp 44
     e02:	24          	lessthan
     e03:	7e          	loadsp 56
     e04:	7c          	loadsp 48
     e05:	26          	ulessthan
     e06:	07          	or
     e07:	59          	storesp 36

00000e08 <.LM8>:
     e08:	80          	im 0
     e09:	54          	storesp 16

00000e0a <.LM9>:
     e0a:	78          	loadsp 32
     e0b:	74          	loadsp 16
     e0c:	2e          	eq
     e0d:	09          	not
     e0e:	81          	im 1
     e0f:	06          	and
     e10:	82          	im 2
     e11:	a9          	im 41
     e12:	38          	neqbranch

00000e13 <.LM10>:
     e13:	77          	loadsp 28
     e14:	7b          	loadsp 44
     e15:	25          	lessthanorequal
     e16:	81          	im 1
     e17:	fc          	im -4
     e18:	38          	neqbranch

00000e19 <.LM11>:
     e19:	77          	loadsp 28
     e1a:	17          	addsp 28

00000e1b <.LM12>:
     e1b:	80          	im 0
     e1c:	d6          	im -42
     e1d:	fc          	im -4
     e1e:	0b          	nop
     e1f:	88          	im 8
     e20:	05          	add
     e21:	08          	load
     e22:	5e          	storesp 56
     e23:	56          	storesp 24
     e24:	7c          	loadsp 48
     e25:	76          	loadsp 24
     e26:	2e          	eq
     e27:	84          	im 4
     e28:	bd          	im 61
     e29:	38          	neqbranch
     e2a:	84          	im 4
     e2b:	16          	addsp 24
     e2c:	08          	load
     e2d:	70          	loadsp 0
     e2e:	fe          	im -2
     e2f:	06          	and
     e30:	17          	addsp 28
     e31:	84          	im 4
     e32:	11          	addsp 4
     e33:	08          	load
     e34:	81          	im 1
     e35:	06          	and
     e36:	51          	storesp 4
     e37:	55          	storesp 20
     e38:	55          	storesp 20
     e39:	73          	loadsp 12
     e3a:	82          	im 2
     e3b:	8b          	im 11
     e3c:	38          	neqbranch

00000e3d <.L10>:
     e3d:	74          	loadsp 16
     e3e:	fc          	im -4
     e3f:	06          	and
     e40:	59          	storesp 36

00000e41 <.LM14>:
     e41:	7c          	loadsp 48
     e42:	76          	loadsp 24
     e43:	2e          	eq
     e44:	84          	im 4
     e45:	dd          	im -35
     e46:	38          	neqbranch

00000e47 <.LM15>:
     e47:	77          	loadsp 28
     e48:	19          	addsp 36
     e49:	5f          	storesp 60
     e4a:	7e          	loadsp 56
     e4b:	7b          	loadsp 44
     e4c:	25          	lessthanorequal
     e4d:	81          	im 1
     e4e:	fd          	im -3
     e4f:	38          	neqbranch

00000e50 <.L16>:
     e50:	79          	loadsp 36
     e51:	81          	im 1
     e52:	06          	and
     e53:	54          	storesp 16
     e54:	73          	loadsp 12
     e55:	82          	im 2
     e56:	bf          	im 63
     e57:	38          	neqbranch

00000e58 <.LM17>:
     e58:	76          	loadsp 24
     e59:	77          	loadsp 28
     e5a:	08          	load
     e5b:	31          	sub

00000e5c <.LM18>:
     e5c:	84          	im 4
     e5d:	11          	addsp 4
     e5e:	08          	load
     e5f:	fc          	im -4
     e60:	06          	and
     e61:	56          	storesp 24
     e62:	5a          	storesp 40

00000e63 <.LM19>:
     e63:	75          	loadsp 20
     e64:	80          	im 0
     e65:	2e          	eq
     e66:	91          	im 17
     e67:	38          	neqbranch

00000e68 <.LM20>:
     e68:	7c          	loadsp 48
     e69:	76          	loadsp 24
     e6a:	2e          	eq
     e6b:	84          	im 4
     e6c:	ea          	im -22
     e6d:	38          	neqbranch

00000e6e <.LM21>:
     e6e:	74          	loadsp 16
     e6f:	19          	addsp 36
     e70:	18          	addsp 32
     e71:	59          	storesp 36
     e72:	78          	loadsp 32
     e73:	7b          	loadsp 44
     e74:	25          	lessthanorequal
     e75:	84          	im 4
     e76:	89          	im 9
     e77:	38          	neqbranch

00000e78 <.L18>:
     e78:	79          	loadsp 36
     e79:	80          	im 0
     e7a:	2e          	eq
     e7b:	82          	im 2
     e7c:	99          	im 25
     e7d:	38          	neqbranch
     e7e:	77          	loadsp 28
     e7f:	15          	addsp 20
     e80:	56          	storesp 24
     e81:	7a          	loadsp 40
     e82:	76          	loadsp 24
     e83:	24          	lessthan
     e84:	82          	im 2
     e85:	90          	im 16
     e86:	38          	neqbranch

00000e87 <.LM23>:
     e87:	8c          	im 12
     e88:	1a          	addsp 40
     e89:	08          	load
     e8a:	88          	im 8
     e8b:	1b          	addsp 44
     e8c:	08          	load
     e8d:	71          	loadsp 4
     e8e:	8c          	im 12
     e8f:	12          	addsp 8
     e90:	0c          	store
     e91:	88          	im 8
     e92:	12          	addsp 8
     e93:	0c          	store
     e94:	55          	storesp 20

00000e95 <.LM24>:
     e95:	79          	loadsp 36

00000e96 <.LM25>:
     e96:	76          	loadsp 24
     e97:	59          	storesp 36
     e98:	57          	storesp 28

00000e99 <.L58>:
     e99:	88          	im 8
     e9a:	17          	addsp 28

00000e9b <.LM27>:
     e9b:	61          	loadsp 68
     e9c:	fc          	im -4
     e9d:	05          	add
     e9e:	57          	storesp 28
     e9f:	59          	storesp 36
     ea0:	75          	loadsp 20
     ea1:	a4          	im 36
     ea2:	26          	ulessthan
     ea3:	85          	im 5
     ea4:	ef          	im -17
     ea5:	38          	neqbranch

00000ea6 <.LBB3>:
     ea6:	7b          	loadsp 44
     ea7:	79          	loadsp 36
     ea8:	55          	storesp 20
     ea9:	55          	storesp 20
     eaa:	93          	im 19
     eab:	76          	loadsp 24
     eac:	27          	ulessthanorequal
     ead:	80          	im 0
     eae:	c9          	im -55
     eaf:	38          	neqbranch
     eb0:	7b          	loadsp 44
     eb1:	70          	loadsp 0
     eb2:	84          	im 4
     eb3:	05          	add
     eb4:	5d          	storesp 52
     eb5:	08          	load
     eb6:	7c          	loadsp 48
     eb7:	56          	storesp 24
     eb8:	79          	loadsp 36
     eb9:	0c          	store
     eba:	74          	loadsp 16
     ebb:	70          	loadsp 0
     ebc:	84          	im 4
     ebd:	05          	add
     ebe:	56          	storesp 24
     ebf:	08          	load
     ec0:	8c          	im 12
     ec1:	18          	addsp 32
     ec2:	0c          	store
     ec3:	90          	im 16
     ec4:	17          	addsp 28
     ec5:	54          	storesp 16
     ec6:	9b          	im 27
     ec7:	76          	loadsp 24
     ec8:	27          	ulessthanorequal
     ec9:	ae          	im 46
     eca:	38          	neqbranch
     ecb:	74          	loadsp 16
     ecc:	70          	loadsp 0
     ecd:	84          	im 4
     ece:	05          	add
     ecf:	56          	storesp 24
     ed0:	08          	load
     ed1:	74          	loadsp 16
     ed2:	0c          	store
     ed3:	74          	loadsp 16
     ed4:	70          	loadsp 0
     ed5:	84          	im 4
     ed6:	05          	add
     ed7:	56          	storesp 24
     ed8:	08          	load
     ed9:	94          	im 20
     eda:	18          	addsp 32
     edb:	0c          	store
     edc:	98          	im 24
     edd:	17          	addsp 28
     ede:	54          	storesp 16
     edf:	a3          	im 35
     ee0:	76          	loadsp 24
     ee1:	27          	ulessthanorequal
     ee2:	95          	im 21
     ee3:	38          	neqbranch
     ee4:	74          	loadsp 16
     ee5:	70          	loadsp 0
     ee6:	84          	im 4
     ee7:	05          	add
     ee8:	56          	storesp 24
     ee9:	08          	load
     eea:	74          	loadsp 16
     eeb:	0c          	store
     eec:	74          	loadsp 16
     eed:	70          	loadsp 0
     eee:	84          	im 4
     eef:	05          	add
     ef0:	56          	storesp 24
     ef1:	08          	load
     ef2:	9c          	im 28
     ef3:	18          	addsp 32
     ef4:	0c          	store
     ef5:	a0          	im 32
     ef6:	17          	addsp 28
     ef7:	54          	storesp 16

00000ef8 <.L38>:
     ef8:	74          	loadsp 16
     ef9:	70          	loadsp 0
     efa:	84          	im 4
     efb:	05          	add
     efc:	56          	storesp 24
     efd:	08          	load
     efe:	74          	loadsp 16
     eff:	70          	loadsp 0
     f00:	84          	im 4
     f01:	05          	add
     f02:	56          	storesp 24
     f03:	0c          	store
     f04:	74          	loadsp 16
     f05:	70          	loadsp 0
     f06:	84          	im 4
     f07:	05          	add
     f08:	56          	storesp 24
     f09:	08          	load
     f0a:	74          	loadsp 16
     f0b:	70          	loadsp 0
     f0c:	84          	im 4
     f0d:	05          	add
     f0e:	56          	storesp 24
     f0f:	0c          	store
     f10:	74          	loadsp 16
     f11:	08          	load
     f12:	74          	loadsp 16
     f13:	0c          	store

00000f14 <.L15>:
     f14:	77          	loadsp 28
     f15:	7b          	loadsp 44
     f16:	31          	sub
     f17:	56          	storesp 24

00000f18 <.LM29>:
     f18:	75          	loadsp 20
     f19:	8f          	im 15
     f1a:	26          	ulessthan
     f1b:	80          	im 0
     f1c:	c9          	im -55
     f1d:	38          	neqbranch

00000f1e <.L50>:
     f1e:	84          	im 4
     f1f:	17          	addsp 28
     f20:	08          	load
     f21:	81          	im 1
     f22:	06          	and
     f23:	78          	loadsp 32
     f24:	07          	or
     f25:	84          	im 4
     f26:	18          	addsp 32
     f27:	0c          	store

00000f28 <.LM31>:
     f28:	77          	loadsp 28
     f29:	17          	addsp 28
     f2a:	84          	im 4
     f2b:	11          	addsp 4
     f2c:	08          	load
     f2d:	81          	im 1
     f2e:	07          	or
     f2f:	84          	im 4
     f30:	12          	addsp 8
     f31:	0c          	store
     f32:	54          	storesp 16

00000f33 <.LM32>:
     f33:	61          	loadsp 68
     f34:	51          	storesp 4
     f35:	a2          	im 34
     f36:	e0          	im -32
     f37:	3f          	callpcrel

00000f38 <.LM33>:
     f38:	88          	im 8
     f39:	17          	addsp 28
     f3a:	54          	storesp 16

00000f3b <.L1>:
     f3b:	73          	loadsp 12
     f3c:	90          	im 16
     f3d:	0c          	store
     f3e:	93          	im 19
     f3f:	3d          	pushspadd
     f40:	0d          	popsp
     f41:	04          	poppc

00000f42 <.L61>:
     f42:	90          	im 16
     f43:	5b          	storesp 44
     f44:	fd          	im -3
     f45:	ba          	im 58
     f46:	39          	poppcrel

00000f47 <.L9>:
     f47:	78          	loadsp 32
     f48:	56          	storesp 24

00000f49 <.LM37>:
     f49:	fe          	im -2
     f4a:	85          	im 5
     f4b:	39          	poppcrel

00000f4c <.L63>:
     f4c:	8c          	im 12
     f4d:	16          	addsp 24
     f4e:	08          	load
     f4f:	88          	im 8
     f50:	17          	addsp 28
     f51:	08          	load
     f52:	71          	loadsp 4
     f53:	8c          	im 12
     f54:	12          	addsp 8
     f55:	0c          	store
     f56:	88          	im 8
     f57:	12          	addsp 8
     f58:	0c          	store
     f59:	55          	storesp 20

00000f5a <.LM39>:
     f5a:	7e          	loadsp 56

00000f5b <.LM40>:
     f5b:	70          	loadsp 0
     f5c:	7c          	loadsp 48
     f5d:	31          	sub
     f5e:	57          	storesp 28
     f5f:	58          	storesp 32

00000f60 <.LM41>:
     f60:	8f          	im 15
     f61:	76          	loadsp 24
     f62:	27          	ulessthanorequal
     f63:	ff          	im -1
     f64:	b9          	im 57
     f65:	38          	neqbranch

00000f66 <.L66>:
     f66:	7a          	loadsp 40
     f67:	17          	addsp 28

00000f68 <.LM43>:
     f68:	84          	im 4
     f69:	18          	addsp 32
     f6a:	08          	load
     f6b:	81          	im 1
     f6c:	06          	and
     f6d:	7c          	loadsp 48
     f6e:	07          	or
     f6f:	84          	im 4
     f70:	19          	addsp 36
     f71:	0c          	store

00000f72 <.LM44>:
     f72:	76          	loadsp 24
     f73:	81          	im 1
     f74:	07          	or
     f75:	84          	im 4
     f76:	12          	addsp 8
     f77:	0c          	store

00000f78 <.LM45>:
     f78:	76          	loadsp 24
     f79:	11          	addsp 4
     f7a:	84          	im 4
     f7b:	11          	addsp 4
     f7c:	08          	load
     f7d:	81          	im 1
     f7e:	07          	or
     f7f:	84          	im 4
     f80:	12          	addsp 8
     f81:	0c          	store
     f82:	55          	storesp 20

00000f83 <.LM46>:
     f83:	88          	im 8
     f84:	05          	add
     f85:	52          	storesp 8
     f86:	61          	loadsp 68
     f87:	51          	storesp 4
     f88:	8c          	im 12
     f89:	f6          	im -10
     f8a:	3f          	callpcrel

00000f8b <.LM47>:
     f8b:	61          	loadsp 68
     f8c:	51          	storesp 4
     f8d:	a2          	im 34
     f8e:	88          	im 8
     f8f:	3f          	callpcrel

00000f90 <.LM48>:
     f90:	88          	im 8
     f91:	17          	addsp 28
     f92:	54          	storesp 16
     f93:	ff          	im -1
     f94:	a6          	im 38
     f95:	39          	poppcrel

00000f96 <.L17>:
     f96:	7d          	loadsp 52
     f97:	52          	storesp 8
     f98:	61          	loadsp 68
     f99:	51          	storesp 4
     f9a:	94          	im 20
     f9b:	f5          	im -11
     f9c:	3f          	callpcrel
     f9d:	90          	im 16
     f9e:	08          	load
     f9f:	59          	storesp 36

00000fa0 <.LM50>:
     fa0:	90          	im 16
     fa1:	08          	load
     fa2:	80          	im 0
     fa3:	2e          	eq
     fa4:	81          	im 1
     fa5:	a3          	im 35
     fa6:	38          	neqbranch

00000fa7 <.LM51>:
     fa7:	90          	im 16
     fa8:	08          	load
     fa9:	f8          	im -8
     faa:	05          	add
     fab:	60          	loadsp 64
     fac:	84          	im 4
     fad:	05          	add
     fae:	08          	load
     faf:	fe          	im -2
     fb0:	06          	and
     fb1:	61          	loadsp 68
     fb2:	05          	add
     fb3:	55          	storesp 20
     fb4:	57          	storesp 28
     fb5:	76          	loadsp 24
     fb6:	74          	loadsp 16
     fb7:	2e          	eq
     fb8:	83          	im 3
     fb9:	e6          	im -26
     fba:	38          	neqbranch

00000fbb <.LM52>:
     fbb:	fc          	im -4
     fbc:	18          	addsp 32
     fbd:	56          	storesp 24
     fbe:	75          	loadsp 20
     fbf:	a4          	im 36
     fc0:	26          	ulessthan
     fc1:	81          	im 1
     fc2:	aa          	im 42
     fc3:	38          	neqbranch

00000fc4 <.LBB5>:
     fc4:	7b          	loadsp 44
     fc5:	90          	im 16
     fc6:	08          	load
     fc7:	55          	storesp 20
     fc8:	55          	storesp 20
     fc9:	93          	im 19
     fca:	76          	loadsp 24
     fcb:	27          	ulessthanorequal
     fcc:	80          	im 0
     fcd:	d8          	im -40
     fce:	38          	neqbranch
     fcf:	74          	loadsp 16
     fd0:	70          	loadsp 0
     fd1:	84          	im 4
     fd2:	05          	add
     fd3:	56          	storesp 24
     fd4:	08          	load
     fd5:	90          	im 16
     fd6:	08          	load
     fd7:	70          	loadsp 0
     fd8:	84          	im 4
     fd9:	05          	add
     fda:	90          	im 16
     fdb:	0c          	store
     fdc:	0c          	store
     fdd:	90          	im 16
     fde:	08          	load
     fdf:	75          	loadsp 20
     fe0:	70          	loadsp 0
     fe1:	84          	im 4
     fe2:	05          	add
     fe3:	57          	storesp 28
     fe4:	08          	load
     fe5:	71          	loadsp 4
     fe6:	70          	loadsp 0
     fe7:	84          	im 4
     fe8:	05          	add
     fe9:	53          	storesp 12
     fea:	0c          	store
     feb:	54          	storesp 16
     fec:	9b          	im 27
     fed:	76          	loadsp 24
     fee:	27          	ulessthanorequal
     fef:	b6          	im 54
     ff0:	38          	neqbranch
     ff1:	74          	loadsp 16
     ff2:	70          	loadsp 0
     ff3:	84          	im 4
     ff4:	05          	add
     ff5:	56          	storesp 24
     ff6:	08          	load
     ff7:	74          	loadsp 16
     ff8:	70          	loadsp 0
     ff9:	84          	im 4
     ffa:	05          	add
     ffb:	56          	storesp 24
     ffc:	0c          	store
     ffd:	74          	loadsp 16
     ffe:	70          	loadsp 0
     fff:	84          	im 4
    1000:	05          	add
    1001:	56          	storesp 24
    1002:	08          	load
    1003:	74          	loadsp 16
    1004:	70          	loadsp 0
    1005:	84          	im 4
    1006:	05          	add
    1007:	56          	storesp 24
    1008:	0c          	store
    1009:	a3          	im 35
    100a:	76          	loadsp 24
    100b:	27          	ulessthanorequal
    100c:	99          	im 25
    100d:	38          	neqbranch
    100e:	74          	loadsp 16
    100f:	70          	loadsp 0
    1010:	84          	im 4
    1011:	05          	add
    1012:	56          	storesp 24
    1013:	08          	load
    1014:	74          	loadsp 16
    1015:	70          	loadsp 0
    1016:	84          	im 4
    1017:	05          	add
    1018:	56          	storesp 24
    1019:	0c          	store
    101a:	74          	loadsp 16
    101b:	70          	loadsp 0
    101c:	84          	im 4
    101d:	05          	add
    101e:	56          	storesp 24
    101f:	08          	load
    1020:	74          	loadsp 16
    1021:	70          	loadsp 0
    1022:	84          	im 4
    1023:	05          	add
    1024:	56          	storesp 24
    1025:	0c          	store

00001026 <.L46>:
    1026:	74          	loadsp 16
    1027:	70          	loadsp 0
    1028:	84          	im 4
    1029:	05          	add
    102a:	56          	storesp 24
    102b:	08          	load
    102c:	74          	loadsp 16
    102d:	70          	loadsp 0
    102e:	84          	im 4
    102f:	05          	add
    1030:	56          	storesp 24
    1031:	0c          	store
    1032:	74          	loadsp 16
    1033:	70          	loadsp 0
    1034:	84          	im 4
    1035:	05          	add
    1036:	56          	storesp 24
    1037:	08          	load
    1038:	74          	loadsp 16
    1039:	70          	loadsp 0
    103a:	84          	im 4
    103b:	05          	add
    103c:	56          	storesp 24
    103d:	0c          	store
    103e:	74          	loadsp 16
    103f:	08          	load
    1040:	74          	loadsp 16
    1041:	0c          	store

00001042 <.LBE5>:
    1042:	7b          	loadsp 44
    1043:	52          	storesp 8
    1044:	61          	loadsp 68
    1045:	51          	storesp 4
    1046:	8b          	im 11
    1047:	b8          	im 56
    1048:	3f          	callpcrel

00001049 <.L53>:
    1049:	61          	loadsp 68
    104a:	51          	storesp 4
    104b:	a0          	im 32
    104c:	ca          	im -54
    104d:	3f          	callpcrel

0000104e <.LM55>:
    104e:	78          	loadsp 32
    104f:	54          	storesp 16

00001050 <.L68>:
    1050:	73          	loadsp 12
    1051:	90          	im 16
    1052:	0c          	store
    1053:	93          	im 19
    1054:	3d          	pushspadd
    1055:	0d          	popsp
    1056:	04          	poppc

00001057 <.L60>:
    1057:	7d          	loadsp 52
    1058:	52          	storesp 8
    1059:	61          	loadsp 68
    105a:	51          	storesp 4
    105b:	93          	im 19
    105c:	b4          	im 52
    105d:	3f          	callpcrel
    105e:	90          	im 16
    105f:	08          	load

00001060 <.LM58>:
    1060:	90          	im 16
    1061:	0c          	store
    1062:	93          	im 19
    1063:	3d          	pushspadd
    1064:	0d          	popsp
    1065:	04          	poppc

00001066 <.L52>:
    1066:	84          	im 4
    1067:	16          	addsp 24
    1068:	08          	load
    1069:	55          	storesp 20
    106a:	fb          	im -5
    106b:	d1          	im -47
    106c:	39          	poppcrel

0000106d <.L45>:
    106d:	75          	loadsp 20
    106e:	53          	storesp 12
    106f:	7b          	loadsp 44
    1070:	52          	storesp 8
    1071:	90          	im 16
    1072:	08          	load
    1073:	51          	storesp 4
    1074:	ef          	im -17
    1075:	c6          	im -58
    1076:	3f          	callpcrel

00001077 <.LM60>:
    1077:	7b          	loadsp 44
    1078:	52          	storesp 8
    1079:	61          	loadsp 68
    107a:	51          	storesp 4
    107b:	8b          	im 11
    107c:	83          	im 3
    107d:	3f          	callpcrel
    107e:	ca          	im -54
    107f:	39          	poppcrel

00001080 <.L65>:
    1080:	8c          	im 12
    1081:	16          	addsp 24
    1082:	08          	load
    1083:	88          	im 8
    1084:	17          	addsp 28
    1085:	08          	load
    1086:	71          	loadsp 4
    1087:	8c          	im 12
    1088:	12          	addsp 8
    1089:	0c          	store
    108a:	88          	im 8
    108b:	12          	addsp 8
    108c:	0c          	store
    108d:	55          	storesp 20

0000108e <.LM62>:
    108e:	8c          	im 12
    108f:	1a          	addsp 40
    1090:	08          	load
    1091:	88          	im 8
    1092:	1b          	addsp 44
    1093:	08          	load
    1094:	71          	loadsp 4
    1095:	8c          	im 12
    1096:	12          	addsp 8
    1097:	0c          	store
    1098:	88          	im 8
    1099:	12          	addsp 8
    109a:	0c          	store
    109b:	55          	storesp 20

0000109c <.LM63>:
    109c:	79          	loadsp 36

0000109d <.LM64>:
    109d:	79          	loadsp 36
    109e:	59          	storesp 36
    109f:	57          	storesp 28
    10a0:	fb          	im -5
    10a1:	f7          	im -9
    10a2:	39          	poppcrel

000010a3 <.L62>:
    10a3:	77          	loadsp 28
    10a4:	19          	addsp 36
    10a5:	90          	im 16
    10a6:	1c          	addsp 48
    10a7:	55          	storesp 20
    10a8:	55          	storesp 20
    10a9:	73          	loadsp 12
    10aa:	75          	loadsp 20
    10ab:	24          	lessthan
    10ac:	fb          	im -5
    10ad:	a2          	im 34
    10ae:	38          	neqbranch

000010af <.LM66>:
    10af:	7a          	loadsp 40
    10b0:	17          	addsp 28
    10b1:	70          	loadsp 0
    10b2:	80          	im 0
    10b3:	d6          	im -42
    10b4:	fc          	im -4
    10b5:	0b          	nop
    10b6:	88          	im 8
    10b7:	05          	add
    10b8:	0c          	store

000010b9 <.LM67>:
    10b9:	75          	loadsp 20
    10ba:	7c          	loadsp 48
    10bb:	31          	sub
    10bc:	81          	im 1
    10bd:	07          	or
    10be:	84          	im 4
    10bf:	12          	addsp 8
    10c0:	0c          	store
    10c1:	5d          	storesp 52

000010c2 <.LM68>:
    10c2:	84          	im 4
    10c3:	17          	addsp 28
    10c4:	08          	load
    10c5:	81          	im 1
    10c6:	06          	and
    10c7:	7b          	loadsp 44
    10c8:	07          	or
    10c9:	84          	im 4
    10ca:	18          	addsp 32
    10cb:	0c          	store

000010cc <.LM69>:
    10cc:	61          	loadsp 68
    10cd:	51          	storesp 4
    10ce:	9f          	im 31
    10cf:	c7          	im -57
    10d0:	3f          	callpcrel

000010d1 <.LM70>:
    10d1:	88          	im 8
    10d2:	17          	addsp 28
    10d3:	54          	storesp 16
    10d4:	fc          	im -4
    10d5:	e5          	im -27
    10d6:	39          	poppcrel

000010d7 <.L64>:
    10d7:	74          	loadsp 16
    10d8:	19          	addsp 36
    10d9:	18          	addsp 32
    10da:	90          	im 16
    10db:	1c          	addsp 48
    10dc:	55          	storesp 20
    10dd:	5d          	storesp 52
    10de:	73          	loadsp 12
    10df:	7d          	loadsp 52
    10e0:	24          	lessthan
    10e1:	fb          	im -5
    10e2:	95          	im 21
    10e3:	38          	neqbranch

000010e4 <.LM72>:
    10e4:	8c          	im 12
    10e5:	1a          	addsp 40
    10e6:	08          	load
    10e7:	88          	im 8
    10e8:	1b          	addsp 44
    10e9:	08          	load
    10ea:	71          	loadsp 4
    10eb:	8c          	im 12
    10ec:	12          	addsp 8
    10ed:	0c          	store
    10ee:	88          	im 8
    10ef:	12          	addsp 8
    10f0:	0c          	store
    10f1:	55          	storesp 20

000010f2 <.LM73>:
    10f2:	88          	im 8
    10f3:	1a          	addsp 40

000010f4 <.LM74>:
    10f4:	61          	loadsp 68
    10f5:	fc          	im -4
    10f6:	05          	add
    10f7:	57          	storesp 28
    10f8:	59          	storesp 36
    10f9:	75          	loadsp 20
    10fa:	a4          	im 36
    10fb:	26          	ulessthan
    10fc:	81          	im 1
    10fd:	ae          	im 46
    10fe:	38          	neqbranch

000010ff <.LBB8>:
    10ff:	7b          	loadsp 44
    1100:	79          	loadsp 36
    1101:	55          	storesp 20
    1102:	55          	storesp 20
    1103:	93          	im 19
    1104:	76          	loadsp 24
    1105:	27          	ulessthanorequal
    1106:	80          	im 0
    1107:	c9          	im -55
    1108:	38          	neqbranch
    1109:	7b          	loadsp 44
    110a:	70          	loadsp 0
    110b:	84          	im 4
    110c:	05          	add
    110d:	5d          	storesp 52
    110e:	08          	load
    110f:	7c          	loadsp 48
    1110:	56          	storesp 24
    1111:	79          	loadsp 36
    1112:	0c          	store
    1113:	74          	loadsp 16
    1114:	70          	loadsp 0
    1115:	84          	im 4
    1116:	05          	add
    1117:	56          	storesp 24
    1118:	08          	load
    1119:	8c          	im 12
    111a:	1b          	addsp 44
    111b:	0c          	store
    111c:	90          	im 16
    111d:	1a          	addsp 40
    111e:	54          	storesp 16
    111f:	9b          	im 27
    1120:	76          	loadsp 24
    1121:	27          	ulessthanorequal
    1122:	ae          	im 46
    1123:	38          	neqbranch
    1124:	74          	loadsp 16
    1125:	70          	loadsp 0
    1126:	84          	im 4
    1127:	05          	add
    1128:	56          	storesp 24
    1129:	08          	load
    112a:	74          	loadsp 16
    112b:	0c          	store
    112c:	74          	loadsp 16
    112d:	70          	loadsp 0
    112e:	84          	im 4
    112f:	05          	add
    1130:	56          	storesp 24
    1131:	08          	load
    1132:	94          	im 20
    1133:	1b          	addsp 44
    1134:	0c          	store
    1135:	98          	im 24
    1136:	1a          	addsp 40
    1137:	54          	storesp 16
    1138:	a3          	im 35
    1139:	76          	loadsp 24
    113a:	27          	ulessthanorequal
    113b:	95          	im 21
    113c:	38          	neqbranch
    113d:	74          	loadsp 16
    113e:	70          	loadsp 0
    113f:	84          	im 4
    1140:	05          	add
    1141:	56          	storesp 24
    1142:	08          	load
    1143:	74          	loadsp 16
    1144:	0c          	store
    1145:	74          	loadsp 16
    1146:	70          	loadsp 0
    1147:	84          	im 4
    1148:	05          	add
    1149:	56          	storesp 24
    114a:	08          	load
    114b:	9c          	im 28
    114c:	1b          	addsp 44
    114d:	0c          	store
    114e:	a0          	im 32
    114f:	1a          	addsp 40
    1150:	54          	storesp 16

00001151 <.L23>:
    1151:	74          	loadsp 16
    1152:	70          	loadsp 0
    1153:	84          	im 4
    1154:	05          	add
    1155:	56          	storesp 24
    1156:	08          	load
    1157:	74          	loadsp 16
    1158:	70          	loadsp 0
    1159:	84          	im 4
    115a:	05          	add
    115b:	56          	storesp 24
    115c:	0c          	store
    115d:	74          	loadsp 16
    115e:	70          	loadsp 0
    115f:	84          	im 4
    1160:	05          	add
    1161:	56          	storesp 24
    1162:	08          	load
    1163:	74          	loadsp 16
    1164:	70          	loadsp 0
    1165:	84          	im 4
    1166:	05          	add
    1167:	56          	storesp 24
    1168:	0c          	store
    1169:	74          	loadsp 16
    116a:	08          	load
    116b:	74          	loadsp 16
    116c:	0c          	store

0000116d <.LBE8>:
    116d:	7a          	loadsp 40
    116e:	1a          	addsp 40
    116f:	70          	loadsp 0
    1170:	80          	im 0
    1171:	d6          	im -42
    1172:	fc          	im -4
    1173:	0b          	nop
    1174:	88          	im 8
    1175:	05          	add
    1176:	0c          	store

00001177 <.LM76>:
    1177:	7d          	loadsp 52
    1178:	7c          	loadsp 48
    1179:	31          	sub
    117a:	81          	im 1
    117b:	07          	or
    117c:	84          	im 4
    117d:	12          	addsp 8
    117e:	0c          	store
    117f:	54          	storesp 16

00001180 <.LM77>:
    1180:	84          	im 4
    1181:	1a          	addsp 40
    1182:	08          	load
    1183:	81          	im 1
    1184:	06          	and
    1185:	7b          	loadsp 44
    1186:	07          	or
    1187:	84          	im 4
    1188:	1b          	addsp 44
    1189:	0c          	store

0000118a <.L69>:
    118a:	61          	loadsp 68
    118b:	51          	storesp 4
    118c:	9e          	im 30
    118d:	89          	im 9
    118e:	3f          	callpcrel

0000118f <.LM79>:
    118f:	78          	loadsp 32
    1190:	54          	storesp 16
    1191:	fd          	im -3
    1192:	bd          	im 61
    1193:	39          	poppcrel

00001194 <.L37>:
    1194:	75          	loadsp 20
    1195:	53          	storesp 12
    1196:	7b          	loadsp 44
    1197:	52          	storesp 8
    1198:	78          	loadsp 32
    1199:	51          	storesp 4
    119a:	ed          	im -19
    119b:	a0          	im 32
    119c:	3f          	callpcrel
    119d:	fa          	im -6
    119e:	f5          	im -11
    119f:	39          	poppcrel

000011a0 <.L67>:
    11a0:	84          	im 4
    11a1:	17          	addsp 28
    11a2:	08          	load
    11a3:	fc          	im -4
    11a4:	06          	and
    11a5:	18          	addsp 32

000011a6 <.LM82>:
    11a6:	60          	loadsp 64
    11a7:	58          	storesp 32
    11a8:	58          	storesp 32
    11a9:	fa          	im -6
    11aa:	e9          	im -23
    11ab:	39          	poppcrel

000011ac <.L22>:
    11ac:	75          	loadsp 20
    11ad:	53          	storesp 12
    11ae:	7b          	loadsp 44
    11af:	52          	storesp 8
    11b0:	78          	loadsp 32
    11b1:	51          	storesp 4
    11b2:	ed          	im -19
    11b3:	88          	im 8
    11b4:	3f          	callpcrel

000011b5 <.LM84>:
    11b5:	7a          	loadsp 40
    11b6:	1a          	addsp 40
    11b7:	70          	loadsp 0
    11b8:	80          	im 0
    11b9:	d6          	im -42
    11ba:	fc          	im -4
    11bb:	0b          	nop
    11bc:	88          	im 8
    11bd:	05          	add
    11be:	0c          	store

000011bf <.LM85>:
    11bf:	7d          	loadsp 52
    11c0:	7c          	loadsp 48
    11c1:	31          	sub
    11c2:	81          	im 1
    11c3:	07          	or
    11c4:	84          	im 4
    11c5:	12          	addsp 8
    11c6:	0c          	store
    11c7:	54          	storesp 16

000011c8 <.LM86>:
    11c8:	84          	im 4
    11c9:	1a          	addsp 40
    11ca:	08          	load
    11cb:	81          	im 1
    11cc:	06          	and
    11cd:	7b          	loadsp 44
    11ce:	07          	or
    11cf:	84          	im 4
    11d0:	1b          	addsp 44
    11d1:	0c          	store
    11d2:	ff          	im -1
    11d3:	b6          	im 54
    11d4:	39          	poppcrel

000011d5 <__swsetup>:
    11d5:	fa          	im -6
    11d6:	3d          	pushspadd
    11d7:	0d          	popsp
    11d8:	78          	loadsp 32

000011d9 <.LM2>:
    11d9:	80          	im 0
    11da:	cf          	im -49
    11db:	c0          	im -64
    11dc:	08          	load
    11dd:	54          	storesp 16
    11de:	55          	storesp 20
    11df:	b8          	im 56
    11e0:	13          	addsp 12
    11e1:	08          	load
    11e2:	80          	im 0
    11e3:	2e          	eq
    11e4:	81          	im 1
    11e5:	b5          	im 53
    11e6:	38          	neqbranch

000011e7 <.L2>:
    11e7:	8c          	im 12
    11e8:	15          	addsp 20
    11e9:	22          	loadh
    11ea:	70          	loadsp 0
    11eb:	83          	im 3
    11ec:	ff          	im -1
    11ed:	ff          	im -1
    11ee:	06          	and
    11ef:	70          	loadsp 0
    11f0:	83          	im 3
    11f1:	2a          	lshiftright
    11f2:	81          	im 1
    11f3:	32          	xor
    11f4:	70          	loadsp 0
    11f5:	81          	im 1
    11f6:	06          	and
    11f7:	51          	storesp 4
    11f8:	55          	storesp 20
    11f9:	55          	storesp 20
    11fa:	56          	storesp 24
    11fb:	72          	loadsp 8
    11fc:	80          	im 0
    11fd:	2e          	eq
    11fe:	80          	im 0
    11ff:	dc          	im -36
    1200:	38          	neqbranch

00001201 <.LM4>:
    1201:	73          	loadsp 12
    1202:	84          	im 4
    1203:	2a          	lshiftright
    1204:	81          	im 1
    1205:	32          	xor
    1206:	81          	im 1
    1207:	06          	and
    1208:	57          	storesp 28

00001209 <.LM5>:
    1209:	ff          	im -1
    120a:	53          	storesp 12

0000120b <.LM6>:
    120b:	76          	loadsp 24
    120c:	80          	im 0
    120d:	f6          	im -10
    120e:	38          	neqbranch

0000120f <.LM7>:
    120f:	73          	loadsp 12
    1210:	82          	im 2
    1211:	2a          	lshiftright
    1212:	70          	loadsp 0
    1213:	81          	im 1
    1214:	06          	and
    1215:	51          	storesp 4
    1216:	53          	storesp 12
    1217:	72          	loadsp 8
    1218:	80          	im 0
    1219:	2e          	eq
    121a:	b9          	im 57
    121b:	38          	neqbranch

0000121c <.LM8>:
    121c:	b0          	im 48
    121d:	15          	addsp 20
    121e:	08          	load
    121f:	54          	storesp 16
    1220:	73          	loadsp 12
    1221:	80          	im 0
    1222:	2e          	eq
    1223:	9c          	im 28
    1224:	38          	neqbranch

00001225 <.LM9>:
    1225:	80          	im 0
    1226:	c0          	im -64
    1227:	15          	addsp 20
    1228:	53          	storesp 12
    1229:	73          	loadsp 12
    122a:	73          	loadsp 12
    122b:	2e          	eq
    122c:	8f          	im 15
    122d:	38          	neqbranch
    122e:	73          	loadsp 12
    122f:	52          	storesp 8
    1230:	80          	im 0
    1231:	cf          	im -49
    1232:	c0          	im -64
    1233:	08          	load
    1234:	51          	storesp 4
    1235:	87          	im 7
    1236:	c9          	im -55
    1237:	3f          	callpcrel
    1238:	8c          	im 12
    1239:	15          	addsp 20
    123a:	22          	loadh
    123b:	56          	storesp 24

0000123c <.L8>:
    123c:	76          	loadsp 24
    123d:	b0          	im 48
    123e:	16          	addsp 24
    123f:	0c          	store

00001240 <.L7>:
    1240:	75          	loadsp 20
    1241:	db          	im -37
    1242:	06          	and
    1243:	53          	storesp 12
    1244:	72          	loadsp 8
    1245:	8c          	im 12
    1246:	16          	addsp 24
    1247:	23          	storeh

00001248 <.LM11>:
    1248:	80          	im 0
    1249:	0b          	nop
    124a:	84          	im 4
    124b:	16          	addsp 24
    124c:	0c          	store

0000124d <.LM12>:
    124d:	90          	im 16
    124e:	15          	addsp 20
    124f:	08          	load
    1250:	75          	loadsp 20
    1251:	0c          	store
    1252:	72          	loadsp 8
    1253:	56          	storesp 24

00001254 <.L6>:
    1254:	75          	loadsp 20
    1255:	88          	im 8
    1256:	07          	or
    1257:	53          	storesp 12
    1258:	72          	loadsp 8
    1259:	8c          	im 12
    125a:	16          	addsp 24
    125b:	23          	storeh

0000125c <.L4>:
    125c:	90          	im 16
    125d:	15          	addsp 20
    125e:	08          	load
    125f:	80          	im 0
    1260:	2e          	eq
    1261:	80          	im 0
    1262:	c0          	im -64
    1263:	38          	neqbranch

00001264 <.LM15>:
    1264:	8c          	im 12
    1265:	15          	addsp 20
    1266:	22          	loadh
    1267:	70          	loadsp 0
    1268:	81          	im 1
    1269:	06          	and
    126a:	55          	storesp 20
    126b:	53          	storesp 12
    126c:	73          	loadsp 12
    126d:	9d          	im 29
    126e:	38          	neqbranch

0000126f <.L10>:
    126f:	72          	loadsp 8
    1270:	81          	im 1
    1271:	2a          	lshiftright
    1272:	70          	loadsp 0
    1273:	81          	im 1
    1274:	06          	and
    1275:	51          	storesp 4
    1276:	53          	storesp 12
    1277:	72          	loadsp 8
    1278:	85          	im 5
    1279:	38          	neqbranch
    127a:	94          	im 20
    127b:	15          	addsp 20
    127c:	08          	load
    127d:	54          	storesp 16

0000127e <.L13>:
    127e:	73          	loadsp 12
    127f:	88          	im 8
    1280:	16          	addsp 24
    1281:	0c          	store

00001282 <.LM17>:
    1282:	80          	im 0
    1283:	53          	storesp 12

00001284 <.L1>:
    1284:	72          	loadsp 8
    1285:	90          	im 16
    1286:	0c          	store
    1287:	88          	im 8
    1288:	3d          	pushspadd
    1289:	0d          	popsp
    128a:	04          	poppc

0000128b <.L17>:
    128b:	80          	im 0
    128c:	0b          	nop
    128d:	88          	im 8
    128e:	16          	addsp 24
    128f:	0c          	store

00001290 <.LM20>:
    1290:	94          	im 20
    1291:	15          	addsp 20
    1292:	08          	load
    1293:	30          	neg
    1294:	98          	im 24
    1295:	16          	addsp 24
    1296:	0c          	store

00001297 <.LM21>:
    1297:	80          	im 0
    1298:	53          	storesp 12
    1299:	ea          	im -22
    129a:	39          	poppcrel

0000129b <.L15>:
    129b:	72          	loadsp 8
    129c:	51          	storesp 4
    129d:	82          	im 2
    129e:	fb          	im -5
    129f:	3f          	callpcrel
    12a0:	fe          	im -2
    12a1:	c5          	im -59
    12a2:	39          	poppcrel

000012a3 <.L16>:
    12a3:	74          	loadsp 16
    12a4:	51          	storesp 4
    12a5:	8c          	im 12
    12a6:	e8          	im -24
    12a7:	3f          	callpcrel

000012a8 <.LM24>:
    12a8:	8c          	im 12
    12a9:	15          	addsp 20
    12aa:	22          	loadh
    12ab:	70          	loadsp 0
    12ac:	81          	im 1
    12ad:	06          	and
    12ae:	55          	storesp 20
    12af:	53          	storesp 12
    12b0:	73          	loadsp 12
    12b1:	80          	im 0
    12b2:	2e          	eq
    12b3:	ff          	im -1
    12b4:	ba          	im 58
    12b5:	38          	neqbranch
    12b6:	d4          	im -44
    12b7:	39          	poppcrel

000012b8 <fflush>:
    12b8:	f8          	im -8
    12b9:	3d          	pushspadd
    12ba:	0d          	popsp
    12bb:	7a          	loadsp 40
    12bc:	58          	storesp 32

000012bd <.LM2>:
    12bd:	77          	loadsp 28
    12be:	80          	im 0
    12bf:	2e          	eq
    12c0:	81          	im 1
    12c1:	99          	im 25
    12c2:	38          	neqbranch

000012c3 <.LM3>:
    12c3:	80          	im 0
    12c4:	cf          	im -49
    12c5:	c0          	im -64
    12c6:	08          	load
    12c7:	54          	storesp 16
    12c8:	b8          	im 56
    12c9:	14          	addsp 16
    12ca:	08          	load
    12cb:	80          	im 0
    12cc:	2e          	eq
    12cd:	80          	im 0
    12ce:	ed          	im -19
    12cf:	38          	neqbranch

000012d0 <.LM4>:
    12d0:	8c          	im 12
    12d1:	18          	addsp 32
    12d2:	22          	loadh
    12d3:	70          	loadsp 0
    12d4:	90          	im 16
    12d5:	2b          	ashiftleft
    12d6:	70          	loadsp 0
    12d7:	90          	im 16
    12d8:	2c          	ashiftright

000012d9 <.LM5>:
    12d9:	70          	loadsp 0
    12da:	83          	im 3
    12db:	2a          	lshiftright
    12dc:	81          	im 1
    12dd:	32          	xor
    12de:	81          	im 1
    12df:	06          	and
    12e0:	5c          	storesp 48
    12e1:	51          	storesp 4
    12e2:	57          	storesp 28
    12e3:	54          	storesp 16
    12e4:	78          	loadsp 32
    12e5:	80          	im 0
    12e6:	cd          	im -51
    12e7:	38          	neqbranch

000012e8 <.L21>:
    12e8:	90          	im 16
    12e9:	18          	addsp 32
    12ea:	08          	load
    12eb:	57          	storesp 28
    12ec:	76          	loadsp 24
    12ed:	80          	im 0
    12ee:	2e          	eq
    12ef:	80          	im 0
    12f0:	c3          	im -61
    12f1:	38          	neqbranch

000012f2 <.LM6>:
    12f2:	77          	loadsp 28
    12f3:	08          	load
    12f4:	77          	loadsp 28
    12f5:	31          	sub

000012f6 <.LM7>:
    12f6:	77          	loadsp 28
    12f7:	79          	loadsp 36
    12f8:	0c          	store

000012f9 <.LM8>:
    12f9:	76          	loadsp 24
    12fa:	83          	im 3
    12fb:	06          	and
    12fc:	7a          	loadsp 40
    12fd:	58          	storesp 32
    12fe:	55          	storesp 20
    12ff:	55          	storesp 20
    1300:	73          	loadsp 12
    1301:	85          	im 5
    1302:	38          	neqbranch
    1303:	94          	im 20
    1304:	18          	addsp 32
    1305:	08          	load
    1306:	56          	storesp 24

00001307 <.L8>:
    1307:	75          	loadsp 20
    1308:	88          	im 8
    1309:	19          	addsp 36
    130a:	0c          	store

0000130b <.LM9>:
    130b:	80          	im 0
    130c:	75          	loadsp 20
    130d:	25          	lessthanorequal
    130e:	a5          	im 37
    130f:	38          	neqbranch

00001310 <.L20>:
    1310:	74          	loadsp 16
    1311:	53          	storesp 12
    1312:	76          	loadsp 24
    1313:	52          	storesp 8
    1314:	9c          	im 28
    1315:	18          	addsp 32
    1316:	08          	load
    1317:	51          	storesp 4
    1318:	a4          	im 36
    1319:	18          	addsp 32
    131a:	08          	load
    131b:	54          	storesp 16
    131c:	73          	loadsp 12
    131d:	2d          	call

0000131e <.LM11>:
    131e:	80          	im 0
    131f:	0b          	nop
    1320:	90          	im 16
    1321:	08          	load
    1322:	25          	lessthanorequal
    1323:	80          	im 0
    1324:	c9          	im -55
    1325:	38          	neqbranch

00001326 <.LM12>:
    1326:	90          	im 16
    1327:	08          	load
    1328:	17          	addsp 28

00001329 <.LM13>:
    1329:	75          	loadsp 20
    132a:	90          	im 16
    132b:	08          	load
    132c:	31          	sub
    132d:	56          	storesp 24
    132e:	57          	storesp 28
    132f:	74          	loadsp 16
    1330:	80          	im 0
    1331:	24          	lessthan
    1332:	dd          	im -35
    1333:	38          	neqbranch

00001334 <.L14>:
    1334:	80          	im 0

00001335 <.LM15>:
    1335:	0b          	nop
    1336:	90          	im 16
    1337:	0c          	store
    1338:	8a          	im 10
    1339:	3d          	pushspadd
    133a:	0d          	popsp
    133b:	04          	poppc

0000133c <.L19>:
    133c:	73          	loadsp 12
    133d:	51          	storesp 4
    133e:	81          	im 1
    133f:	da          	im -38
    1340:	3f          	callpcrel

00001341 <.LM17>:
    1341:	8c          	im 12
    1342:	18          	addsp 32
    1343:	22          	loadh
    1344:	70          	loadsp 0
    1345:	90          	im 16
    1346:	2b          	ashiftleft
    1347:	70          	loadsp 0
    1348:	90          	im 16
    1349:	2c          	ashiftright

0000134a <.LM18>:
    134a:	70          	loadsp 0
    134b:	83          	im 3
    134c:	2a          	lshiftright
    134d:	81          	im 1
    134e:	32          	xor
    134f:	81          	im 1
    1350:	06          	and
    1351:	5c          	storesp 48
    1352:	51          	storesp 4
    1353:	57          	storesp 28
    1354:	54          	storesp 16
    1355:	78          	loadsp 32
    1356:	dd          	im -35
    1357:	38          	neqbranch
    1358:	ff          	im -1
    1359:	8e          	im 14
    135a:	39          	poppcrel

0000135b <.L18>:
    135b:	a5          	im 37
    135c:	b8          	im 56
    135d:	52          	storesp 8
    135e:	80          	im 0
    135f:	cf          	im -49
    1360:	c0          	im -64
    1361:	08          	load
    1362:	51          	storesp 4
    1363:	89          	im 9
    1364:	f1          	im -15
    1365:	3f          	callpcrel
    1366:	90          	im 16
    1367:	08          	load

00001368 <.LM20>:
    1368:	90          	im 16
    1369:	0c          	store
    136a:	8a          	im 10
    136b:	3d          	pushspadd
    136c:	0d          	popsp
    136d:	04          	poppc

0000136e <.L15>:
    136e:	8c          	im 12
    136f:	18          	addsp 32
    1370:	22          	loadh
    1371:	80          	im 0
    1372:	c0          	im -64
    1373:	07          	or
    1374:	54          	storesp 16
    1375:	73          	loadsp 12
    1376:	8c          	im 12
    1377:	19          	addsp 36
    1378:	23          	storeh

00001379 <.LM22>:
    1379:	ff          	im -1

0000137a <.LM23>:
    137a:	0b          	nop
    137b:	90          	im 16
    137c:	0c          	store
    137d:	8a          	im 10
    137e:	3d          	pushspadd
    137f:	0d          	popsp
    1380:	04          	poppc

00001381 <std>:
    1381:	80          	im 0
    1382:	3d          	pushspadd
    1383:	0d          	popsp
    1384:	72          	loadsp 8
    1385:	51          	storesp 4

00001386 <.LM2>:
    1386:	80          	im 0
    1387:	71          	loadsp 4
    1388:	0c          	store

00001389 <.LM3>:
    1389:	80          	im 0
    138a:	0b          	nop
    138b:	84          	im 4
    138c:	12          	addsp 8
    138d:	0c          	store

0000138e <.LM4>:
    138e:	80          	im 0
    138f:	0b          	nop
    1390:	88          	im 8
    1391:	12          	addsp 8
    1392:	0c          	store

00001393 <.LM5>:
    1393:	02          	pushsp
    1394:	8e          	im 14
    1395:	05          	add
    1396:	22          	loadh
    1397:	8c          	im 12
    1398:	12          	addsp 8
    1399:	23          	storeh

0000139a <.LM6>:
    139a:	02          	pushsp
    139b:	92          	im 18
    139c:	05          	add
    139d:	22          	loadh
    139e:	8e          	im 14
    139f:	12          	addsp 8
    13a0:	23          	storeh

000013a1 <.LM7>:
    13a1:	80          	im 0
    13a2:	0b          	nop
    13a3:	90          	im 16
    13a4:	12          	addsp 8
    13a5:	0c          	store

000013a6 <.LM8>:
    13a6:	80          	im 0
    13a7:	0b          	nop
    13a8:	94          	im 20
    13a9:	12          	addsp 8
    13aa:	0c          	store

000013ab <.LM9>:
    13ab:	80          	im 0
    13ac:	0b          	nop
    13ad:	98          	im 24
    13ae:	12          	addsp 8
    13af:	0c          	store

000013b0 <.LM10>:
    13b0:	70          	loadsp 0
    13b1:	9c          	im 28
    13b2:	12          	addsp 8
    13b3:	0c          	store

000013b4 <.LM11>:
    13b4:	80          	im 0
    13b5:	c1          	im -63
    13b6:	cc          	im -52
    13b7:	0b          	nop
    13b8:	a0          	im 32
    13b9:	12          	addsp 8
    13ba:	0c          	store

000013bb <.LM12>:
    13bb:	80          	im 0
    13bc:	c2          	im -62
    13bd:	98          	im 24
    13be:	0b          	nop
    13bf:	a4          	im 36
    13c0:	12          	addsp 8
    13c1:	0c          	store

000013c2 <.LM13>:
    13c2:	80          	im 0
    13c3:	c3          	im -61
    13c4:	94          	im 20
    13c5:	0b          	nop
    13c6:	a8          	im 40
    13c7:	12          	addsp 8
    13c8:	0c          	store

000013c9 <.LM14>:
    13c9:	80          	im 0
    13ca:	c3          	im -61
    13cb:	e5          	im -27
    13cc:	0b          	nop
    13cd:	ac          	im 44
    13ce:	12          	addsp 8
    13cf:	0c          	store
    13d0:	82          	im 2
    13d1:	3d          	pushspadd
    13d2:	0d          	popsp
    13d3:	04          	poppc

000013d4 <__sfmoreglue>:
    13d4:	fa          	im -6
    13d5:	3d          	pushspadd
    13d6:	0d          	popsp
    13d7:	79          	loadsp 36

000013d8 <.LM16>:
    13d8:	70          	loadsp 0
    13d9:	80          	im 0
    13da:	dc          	im -36
    13db:	29          	mult
    13dc:	8c          	im 12
    13dd:	11          	addsp 4
    13de:	54          	storesp 16
    13df:	7a          	loadsp 40
    13e0:	53          	storesp 12
    13e1:	56          	storesp 24
    13e2:	57          	storesp 28
    13e3:	8c          	im 12
    13e4:	ac          	im 44
    13e5:	3f          	callpcrel
    13e6:	90          	im 16
    13e7:	08          	load

000013e8 <.LM17>:
    13e8:	90          	im 16
    13e9:	08          	load
    13ea:	55          	storesp 20
    13eb:	56          	storesp 24

000013ec <.LM18>:
    13ec:	90          	im 16
    13ed:	08          	load
    13ee:	80          	im 0
    13ef:	2e          	eq
    13f0:	a2          	im 34
    13f1:	38          	neqbranch

000013f2 <.LM19>:
    13f2:	90          	im 16
    13f3:	08          	load
    13f4:	8c          	im 12
    13f5:	05          	add
    13f6:	54          	storesp 16

000013f7 <.LM20>:
    13f7:	80          	im 0
    13f8:	0b          	nop
    13f9:	90          	im 16
    13fa:	08          	load
    13fb:	0c          	store

000013fc <.LM21>:
    13fc:	76          	loadsp 24
    13fd:	90          	im 16
    13fe:	08          	load
    13ff:	84          	im 4
    1400:	05          	add
    1401:	0c          	store

00001402 <.LM22>:
    1402:	73          	loadsp 12
    1403:	90          	im 16
    1404:	08          	load
    1405:	88          	im 8
    1406:	05          	add
    1407:	0c          	store

00001408 <.LM23>:
    1408:	74          	loadsp 16
    1409:	53          	storesp 12
    140a:	80          	im 0
    140b:	52          	storesp 8
    140c:	73          	loadsp 12
    140d:	51          	storesp 4
    140e:	97          	im 23
    140f:	f7          	im -9
    1410:	3f          	callpcrel

00001411 <.LM24>:
    1411:	75          	loadsp 20
    1412:	54          	storesp 16

00001413 <.L2>:
    1413:	73          	loadsp 12
    1414:	90          	im 16
    1415:	0c          	store
    1416:	88          	im 8
    1417:	3d          	pushspadd
    1418:	0d          	popsp
    1419:	04          	poppc

0000141a <__sinit>:
    141a:	fc          	im -4
    141b:	3d          	pushspadd
    141c:	0d          	popsp
    141d:	76          	loadsp 24

0000141e <.LM27>:
    141e:	aa          	im 42
    141f:	ad          	im 45
    1420:	0b          	nop
    1421:	bc          	im 60
    1422:	12          	addsp 8
    1423:	0c          	store
    1424:	55          	storesp 20

00001425 <.LM28>:
    1425:	81          	im 1
    1426:	0b          	nop
    1427:	b8          	im 56
    1428:	16          	addsp 24
    1429:	0c          	store

0000142a <.LM29>:
    142a:	80          	im 0
    142b:	0b          	nop
    142c:	84          	im 4
    142d:	dc          	im -36
    142e:	16          	addsp 24
    142f:	0c          	store

00001430 <.LM30>:
    1430:	83          	im 3
    1431:	0b          	nop
    1432:	84          	im 4
    1433:	e0          	im -32
    1434:	16          	addsp 24
    1435:	0c          	store

00001436 <.LM31>:
    1436:	84          	im 4
    1437:	e8          	im -24
    1438:	15          	addsp 20
    1439:	84          	im 4
    143a:	e4          	im -28
    143b:	16          	addsp 24
    143c:	0c          	store

0000143d <.LM32>:
    143d:	74          	loadsp 16
    143e:	54          	storesp 16
    143f:	80          	im 0
    1440:	53          	storesp 12
    1441:	84          	im 4
    1442:	52          	storesp 8
    1443:	84          	im 4
    1444:	15          	addsp 20
    1445:	08          	load
    1446:	51          	storesp 4
    1447:	fe          	im -2
    1448:	b8          	im 56
    1449:	3f          	callpcrel

0000144a <.LM33>:
    144a:	74          	loadsp 16
    144b:	54          	storesp 16
    144c:	81          	im 1
    144d:	53          	storesp 12
    144e:	89          	im 9
    144f:	52          	storesp 8
    1450:	88          	im 8
    1451:	15          	addsp 20
    1452:	08          	load
    1453:	51          	storesp 4
    1454:	fe          	im -2
    1455:	ab          	im 43
    1456:	3f          	callpcrel

00001457 <.LM34>:
    1457:	74          	loadsp 16
    1458:	54          	storesp 16
    1459:	82          	im 2
    145a:	53          	storesp 12
    145b:	8a          	im 10
    145c:	52          	storesp 8
    145d:	8c          	im 12
    145e:	15          	addsp 20
    145f:	08          	load
    1460:	51          	storesp 4
    1461:	fe          	im -2
    1462:	9e          	im 30
    1463:	3f          	callpcrel
    1464:	86          	im 6
    1465:	3d          	pushspadd
    1466:	0d          	popsp
    1467:	04          	poppc

00001468 <__sfp>:
    1468:	f9          	im -7
    1469:	3d          	pushspadd
    146a:	0d          	popsp
    146b:	79          	loadsp 36

0000146c <.LM36>:
    146c:	80          	im 0
    146d:	cf          	im -49
    146e:	c0          	im -64
    146f:	08          	load
    1470:	54          	storesp 16
    1471:	57          	storesp 28
    1472:	b8          	im 56
    1473:	13          	addsp 12
    1474:	08          	load
    1475:	80          	im 0
    1476:	2e          	eq
    1477:	80          	im 0
    1478:	c8          	im -56
    1479:	38          	neqbranch

0000147a <.LM37>:
    147a:	84          	im 4
    147b:	dc          	im -36
    147c:	13          	addsp 12
    147d:	56          	storesp 24

0000147e <.L8>:
    147e:	88          	im 8
    147f:	16          	addsp 24
    1480:	08          	load
    1481:	84          	im 4
    1482:	17          	addsp 28
    1483:	08          	load
    1484:	ff          	im -1
    1485:	05          	add
    1486:	55          	storesp 20
    1487:	55          	storesp 20

00001488 <.L20>:
    1488:	80          	im 0
    1489:	74          	loadsp 16
    148a:	24          	lessthan
    148b:	9f          	im 31
    148c:	38          	neqbranch

0000148d <.L23>:
    148d:	8c          	im 12
    148e:	15          	addsp 20
    148f:	22          	loadh
    1490:	70          	loadsp 0
    1491:	90          	im 16
    1492:	2b          	ashiftleft
    1493:	70          	loadsp 0
    1494:	90          	im 16
    1495:	2c          	ashiftright
    1496:	51          	storesp 4
    1497:	54          	storesp 16
    1498:	58          	storesp 32
    1499:	72          	loadsp 8
    149a:	80          	im 0
    149b:	2e          	eq
    149c:	80          	im 0
    149d:	ca          	im -54
    149e:	38          	neqbranch

0000149f <.LM40>:
    149f:	80          	im 0
    14a0:	dc          	im -36
    14a1:	15          	addsp 20
    14a2:	ff          	im -1
    14a3:	15          	addsp 20
    14a4:	55          	storesp 20
    14a5:	55          	storesp 20
    14a6:	73          	loadsp 12
    14a7:	80          	im 0
    14a8:	25          	lessthanorequal
    14a9:	e3          	im -29
    14aa:	38          	neqbranch

000014ab <.L19>:
    14ab:	75          	loadsp 20
    14ac:	08          	load
    14ad:	53          	storesp 12
    14ae:	72          	loadsp 8
    14af:	80          	im 0
    14b0:	2e          	eq
    14b1:	9f          	im 31
    14b2:	38          	neqbranch

000014b3 <.LM42>:
    14b3:	72          	loadsp 8
    14b4:	56          	storesp 24

000014b5 <.L25>:
    14b5:	88          	im 8
    14b6:	16          	addsp 24
    14b7:	08          	load
    14b8:	84          	im 4
    14b9:	17          	addsp 28
    14ba:	08          	load
    14bb:	ff          	im -1
    14bc:	05          	add
    14bd:	55          	storesp 20
    14be:	55          	storesp 20
    14bf:	c8          	im -56
    14c0:	39          	poppcrel

000014c1 <.L22>:
    14c1:	72          	loadsp 8
    14c2:	51          	storesp 4
    14c3:	fe          	im -2
    14c4:	d5          	im -43
    14c5:	3f          	callpcrel
    14c6:	80          	im 0
    14c7:	cf          	im -49
    14c8:	c0          	im -64
    14c9:	08          	load

000014ca <.LM45>:
    14ca:	84          	im 4
    14cb:	dc          	im -36
    14cc:	05          	add
    14cd:	56          	storesp 24
    14ce:	ff          	im -1
    14cf:	ae          	im 46
    14d0:	39          	poppcrel

000014d1 <.L24>:
    14d1:	84          	im 4
    14d2:	52          	storesp 8
    14d3:	76          	loadsp 24
    14d4:	51          	storesp 4
    14d5:	fd          	im -3
    14d6:	fd          	im -3
    14d7:	3f          	callpcrel
    14d8:	90          	im 16
    14d9:	08          	load
    14da:	76          	loadsp 24
    14db:	0c          	store
    14dc:	90          	im 16
    14dd:	08          	load
    14de:	80          	im 0
    14df:	2e          	eq
    14e0:	80          	im 0
    14e1:	c0          	im -64
    14e2:	38          	neqbranch
    14e3:	90          	im 16
    14e4:	08          	load

000014e5 <.LM47>:
    14e5:	56          	storesp 24
    14e6:	ce          	im -50
    14e7:	39          	poppcrel

000014e8 <.L15>:
    14e8:	81          	im 1
    14e9:	0b          	nop
    14ea:	8c          	im 12
    14eb:	16          	addsp 24
    14ec:	23          	storeh

000014ed <.LM49>:
    14ed:	72          	loadsp 8
    14ee:	75          	loadsp 20
    14ef:	0c          	store

000014f0 <.LM50>:
    14f0:	72          	loadsp 8
    14f1:	88          	im 8
    14f2:	16          	addsp 24
    14f3:	0c          	store

000014f4 <.LM51>:
    14f4:	72          	loadsp 8
    14f5:	84          	im 4
    14f6:	16          	addsp 24
    14f7:	0c          	store

000014f8 <.LM52>:
    14f8:	72          	loadsp 8
    14f9:	90          	im 16
    14fa:	16          	addsp 24
    14fb:	0c          	store

000014fc <.LM53>:
    14fc:	72          	loadsp 8
    14fd:	94          	im 20
    14fe:	16          	addsp 24
    14ff:	0c          	store

00001500 <.LM54>:
    1500:	72          	loadsp 8
    1501:	98          	im 24
    1502:	16          	addsp 24
    1503:	0c          	store

00001504 <.LM55>:
    1504:	ff          	im -1
    1505:	0b          	nop
    1506:	8e          	im 14
    1507:	16          	addsp 24
    1508:	23          	storeh

00001509 <.LM56>:
    1509:	72          	loadsp 8
    150a:	b0          	im 48
    150b:	16          	addsp 24
    150c:	0c          	store

0000150d <.LM57>:
    150d:	72          	loadsp 8
    150e:	b4          	im 52
    150f:	16          	addsp 24
    1510:	0c          	store

00001511 <.LM58>:
    1511:	72          	loadsp 8
    1512:	80          	im 0
    1513:	c4          	im -60
    1514:	16          	addsp 24
    1515:	0c          	store

00001516 <.LM59>:
    1516:	72          	loadsp 8
    1517:	80          	im 0
    1518:	c8          	im -56
    1519:	16          	addsp 24
    151a:	0c          	store

0000151b <.LM60>:
    151b:	74          	loadsp 16

0000151c <.LM61>:
    151c:	90          	im 16
    151d:	0c          	store
    151e:	89          	im 9
    151f:	3d          	pushspadd
    1520:	0d          	popsp
    1521:	04          	poppc

00001522 <.L9>:
    1522:	8c          	im 12
    1523:	77          	loadsp 28
    1524:	0c          	store

00001525 <.LM63>:
    1525:	80          	im 0

00001526 <.LM64>:
    1526:	0b          	nop
    1527:	90          	im 16
    1528:	0c          	store
    1529:	89          	im 9
    152a:	3d          	pushspadd
    152b:	0d          	popsp
    152c:	04          	poppc

0000152d <_cleanup_r>:
    152d:	ff          	im -1
    152e:	3d          	pushspadd
    152f:	0d          	popsp

00001530 <.LM66>:
    1530:	a5          	im 37
    1531:	b8          	im 56
    1532:	52          	storesp 8
    1533:	73          	loadsp 12
    1534:	51          	storesp 4
    1535:	86          	im 6
    1536:	9f          	im 31
    1537:	3f          	callpcrel
    1538:	83          	im 3
    1539:	3d          	pushspadd
    153a:	0d          	popsp
    153b:	04          	poppc

0000153c <_cleanup>:
    153c:	80          	im 0
    153d:	3d          	pushspadd
    153e:	0d          	popsp

0000153f <.LM68>:
    153f:	80          	im 0
    1540:	cf          	im -49
    1541:	c0          	im -64
    1542:	08          	load
    1543:	51          	storesp 4
    1544:	e8          	im -24
    1545:	3f          	callpcrel
    1546:	82          	im 2
    1547:	3d          	pushspadd
    1548:	0d          	popsp
    1549:	04          	poppc

0000154a <_malloc_trim_r>:
    154a:	fb          	im -5
    154b:	3d          	pushspadd
    154c:	0d          	popsp
    154d:	77          	loadsp 28

0000154e <.LM2>:
    154e:	70          	loadsp 0
    154f:	52          	storesp 8
    1550:	56          	storesp 24
    1551:	96          	im 22
    1552:	c3          	im -61
    1553:	3f          	callpcrel

00001554 <.LM3>:
    1554:	80          	im 0
    1555:	d6          	im -42
    1556:	fc          	im -4
    1557:	0b          	nop
    1558:	88          	im 8
    1559:	05          	add
    155a:	08          	load
    155b:	84          	im 4
    155c:	11          	addsp 4
    155d:	08          	load
    155e:	fc          	im -4
    155f:	06          	and

00001560 <.LM4>:
    1560:	70          	loadsp 0
    1561:	7b          	loadsp 44
    1562:	31          	sub
    1563:	9f          	im 31
    1564:	ef          	im -17
    1565:	05          	add
    1566:	e0          	im -32
    1567:	80          	im 0
    1568:	06          	and
    1569:	e0          	im -32
    156a:	80          	im 0
    156b:	05          	add
    156c:	56          	storesp 24
    156d:	56          	storesp 24
    156e:	53          	storesp 12

0000156f <.LM5>:
    156f:	a0          	im 32
    1570:	80          	im 0
    1571:	74          	loadsp 16
    1572:	24          	lessthan
    1573:	94          	im 20
    1574:	38          	neqbranch

00001575 <.LM6>:
    1575:	80          	im 0
    1576:	52          	storesp 8
    1577:	75          	loadsp 20
    1578:	51          	storesp 4
    1579:	96          	im 22
    157a:	9d          	im 29
    157b:	3f          	callpcrel

0000157c <.LM7>:
    157c:	80          	im 0
    157d:	d7          	im -41
    157e:	84          	im 4
    157f:	08          	load
    1580:	15          	addsp 20
    1581:	53          	storesp 12
    1582:	72          	loadsp 8
    1583:	90          	im 16
    1584:	08          	load
    1585:	2e          	eq
    1586:	8f          	im 15
    1587:	38          	neqbranch

00001588 <.L7>:
    1588:	75          	loadsp 20
    1589:	51          	storesp 4
    158a:	96          	im 22
    158b:	8b          	im 11
    158c:	3f          	callpcrel

0000158d <.LM9>:
    158d:	80          	im 0
    158e:	53          	storesp 12

0000158f <.L1>:
    158f:	72          	loadsp 8
    1590:	90          	im 16
    1591:	0c          	store
    1592:	87          	im 7
    1593:	3d          	pushspadd
    1594:	0d          	popsp
    1595:	04          	poppc

00001596 <.L10>:
    1596:	73          	loadsp 12
    1597:	30          	neg
    1598:	52          	storesp 8
    1599:	75          	loadsp 20
    159a:	51          	storesp 4
    159b:	95          	im 21
    159c:	fb          	im -5
    159d:	3f          	callpcrel

0000159e <.LM12>:
    159e:	90          	im 16
    159f:	08          	load
    15a0:	ff          	im -1
    15a1:	2e          	eq
    15a2:	a8          	im 40
    15a3:	38          	neqbranch

000015a4 <.LM13>:
    15a4:	80          	im 0
    15a5:	d6          	im -42
    15a6:	fc          	im -4
    15a7:	0b          	nop
    15a8:	88          	im 8
    15a9:	05          	add
    15aa:	08          	load
    15ab:	75          	loadsp 20
    15ac:	75          	loadsp 20
    15ad:	31          	sub
    15ae:	81          	im 1
    15af:	07          	or
    15b0:	84          	im 4
    15b1:	12          	addsp 8
    15b2:	0c          	store
    15b3:	53          	storesp 12

000015b4 <.LM14>:
    15b4:	80          	im 0
    15b5:	d6          	im -42
    15b6:	c0          	im -64
    15b7:	08          	load
    15b8:	74          	loadsp 16
    15b9:	31          	sub
    15ba:	80          	im 0
    15bb:	d6          	im -42
    15bc:	c0          	im -64
    15bd:	0c          	store

000015be <.LM15>:
    15be:	75          	loadsp 20
    15bf:	51          	storesp 4
    15c0:	95          	im 21
    15c1:	d5          	im -43
    15c2:	3f          	callpcrel

000015c3 <.LM16>:
    15c3:	81          	im 1

000015c4 <.LM17>:
    15c4:	0b          	nop
    15c5:	90          	im 16
    15c6:	0c          	store
    15c7:	87          	im 7
    15c8:	3d          	pushspadd
    15c9:	0d          	popsp
    15ca:	04          	poppc

000015cb <.L11>:
    15cb:	80          	im 0
    15cc:	52          	storesp 8
    15cd:	75          	loadsp 20
    15ce:	51          	storesp 4
    15cf:	95          	im 21
    15d0:	c7          	im -57
    15d1:	3f          	callpcrel

000015d2 <.LM19>:
    15d2:	80          	im 0
    15d3:	d6          	im -42
    15d4:	fc          	im -4
    15d5:	0b          	nop
    15d6:	88          	im 8
    15d7:	05          	add
    15d8:	08          	load
    15d9:	90          	im 16
    15da:	08          	load
    15db:	71          	loadsp 4
    15dc:	31          	sub
    15dd:	56          	storesp 24
    15de:	53          	storesp 12

000015df <.LM20>:
    15df:	8f          	im 15
    15e0:	75          	loadsp 20
    15e1:	25          	lessthanorequal
    15e2:	ff          	im -1
    15e3:	a4          	im 36
    15e4:	38          	neqbranch

000015e5 <.LM21>:
    15e5:	90          	im 16
    15e6:	08          	load
    15e7:	80          	im 0
    15e8:	d6          	im -42
    15e9:	f0          	im -16
    15ea:	08          	load
    15eb:	31          	sub
    15ec:	80          	im 0
    15ed:	d6          	im -42
    15ee:	c0          	im -64
    15ef:	0c          	store

000015f0 <.LM22>:
    15f0:	74          	loadsp 16
    15f1:	81          	im 1
    15f2:	07          	or
    15f3:	84          	im 4
    15f4:	14          	addsp 16
    15f5:	0c          	store

000015f6 <.LM23>:
    15f6:	75          	loadsp 20
    15f7:	51          	storesp 4
    15f8:	95          	im 21
    15f9:	9d          	im 29
    15fa:	3f          	callpcrel

000015fb <.LM24>:
    15fb:	80          	im 0
    15fc:	53          	storesp 12
    15fd:	ff          	im -1
    15fe:	90          	im 16
    15ff:	39          	poppcrel

00001600 <_free_r>:
    1600:	f6          	im -10
    1601:	3d          	pushspadd
    1602:	0d          	popsp
    1603:	7c          	loadsp 48
    1604:	7e          	loadsp 56
    1605:	54          	storesp 16
    1606:	5b          	storesp 44

00001607 <.LM26>:
    1607:	72          	loadsp 8
    1608:	80          	im 0
    1609:	2e          	eq
    160a:	82          	im 2
    160b:	83          	im 3
    160c:	38          	neqbranch

0000160d <.LM27>:
    160d:	7a          	loadsp 40
    160e:	51          	storesp 4
    160f:	95          	im 21
    1610:	85          	im 5
    1611:	3f          	callpcrel

00001612 <.LM28>:
    1612:	f8          	im -8
    1613:	13          	addsp 12

00001614 <.LM29>:
    1614:	84          	im 4
    1615:	11          	addsp 4
    1616:	08          	load

00001617 <.LM30>:
    1617:	70          	loadsp 0
    1618:	fe          	im -2
    1619:	06          	and

0000161a <.LM31>:
    161a:	70          	loadsp 0
    161b:	13          	addsp 12

0000161c <.LM32>:
    161c:	84          	im 4
    161d:	11          	addsp 4
    161e:	08          	load
    161f:	fc          	im -4
    1620:	06          	and
    1621:	5d          	storesp 52
    1622:	58          	storesp 32
    1623:	59          	storesp 36
    1624:	54          	storesp 16
    1625:	58          	storesp 32

00001626 <.LM33>:
    1626:	80          	im 0
    1627:	d7          	im -41
    1628:	84          	im 4
    1629:	08          	load
    162a:	75          	loadsp 20
    162b:	2e          	eq
    162c:	82          	im 2
    162d:	de          	im -34
    162e:	38          	neqbranch

0000162f <.LM34>:
    162f:	78          	loadsp 32
    1630:	84          	im 4
    1631:	16          	addsp 24
    1632:	0c          	store

00001633 <.LM35>:
    1633:	80          	im 0

00001634 <.LM36>:
    1634:	73          	loadsp 12
    1635:	81          	im 1
    1636:	06          	and
    1637:	54          	storesp 16
    1638:	5a          	storesp 40
    1639:	72          	loadsp 8
    163a:	7a          	loadsp 40
    163b:	2e          	eq
    163c:	81          	im 1
    163d:	d5          	im -43
    163e:	38          	neqbranch

0000163f <.L17>:
    163f:	78          	loadsp 32
    1640:	15          	addsp 20
    1641:	84          	im 4
    1642:	11          	addsp 4
    1643:	08          	load
    1644:	81          	im 1
    1645:	06          	and
    1646:	51          	storesp 4
    1647:	53          	storesp 12
    1648:	72          	loadsp 8
    1649:	a0          	im 32
    164a:	38          	neqbranch

0000164b <.LM38>:
    164b:	78          	loadsp 32
    164c:	17          	addsp 28
    164d:	57          	storesp 28

0000164e <.LM39>:
    164e:	79          	loadsp 36
    164f:	81          	im 1
    1650:	e6          	im -26
    1651:	38          	neqbranch
    1652:	88          	im 8
    1653:	15          	addsp 20
    1654:	08          	load
    1655:	53          	storesp 12
    1656:	72          	loadsp 8
    1657:	80          	im 0
    1658:	d7          	im -41
    1659:	84          	im 4
    165a:	2e          	eq
    165b:	82          	im 2
    165c:	f9          	im -7
    165d:	38          	neqbranch

0000165e <.LM40>:
    165e:	8c          	im 12
    165f:	15          	addsp 20
    1660:	08          	load
    1661:	70          	loadsp 0
    1662:	8c          	im 12
    1663:	15          	addsp 20
    1664:	0c          	store
    1665:	73          	loadsp 12
    1666:	88          	im 8
    1667:	12          	addsp 8
    1668:	0c          	store
    1669:	56          	storesp 24

0000166a <.L20>:
    166a:	76          	loadsp 24
    166b:	81          	im 1
    166c:	07          	or
    166d:	84          	im 4
    166e:	19          	addsp 36
    166f:	0c          	store

00001670 <.LM42>:
    1670:	76          	loadsp 24
    1671:	18          	addsp 32
    1672:	77          	loadsp 28
    1673:	71          	loadsp 4
    1674:	0c          	store
    1675:	53          	storesp 12

00001676 <.LM43>:
    1676:	79          	loadsp 36
    1677:	81          	im 1
    1678:	91          	im 17
    1679:	38          	neqbranch

0000167a <.LM44>:
    167a:	83          	im 3
    167b:	ff          	im -1
    167c:	77          	loadsp 28
    167d:	27          	ulessthanorequal
    167e:	81          	im 1
    167f:	c8          	im -56
    1680:	38          	neqbranch
    1681:	76          	loadsp 24
    1682:	89          	im 9
    1683:	2a          	lshiftright
    1684:	77          	loadsp 28
    1685:	83          	im 3
    1686:	2a          	lshiftright
    1687:	56          	storesp 24
    1688:	53          	storesp 12
    1689:	72          	loadsp 8
    168a:	80          	im 0
    168b:	2e          	eq
    168c:	bf          	im 63
    168d:	38          	neqbranch
    168e:	76          	loadsp 24
    168f:	86          	im 6
    1690:	2a          	lshiftright
    1691:	b8          	im 56
    1692:	05          	add
    1693:	55          	storesp 20
    1694:	84          	im 4
    1695:	73          	loadsp 12
    1696:	27          	ulessthanorequal
    1697:	b4          	im 52
    1698:	38          	neqbranch
    1699:	80          	im 0
    169a:	db          	im -37
    169b:	13          	addsp 12
    169c:	55          	storesp 20
    169d:	94          	im 20
    169e:	73          	loadsp 12
    169f:	27          	ulessthanorequal
    16a0:	ab          	im 43
    16a1:	38          	neqbranch
    16a2:	76          	loadsp 24
    16a3:	8c          	im 12
    16a4:	2a          	lshiftright
    16a5:	80          	im 0
    16a6:	ee          	im -18
    16a7:	05          	add
    16a8:	55          	storesp 20
    16a9:	80          	im 0
    16aa:	d4          	im -44
    16ab:	73          	loadsp 12
    16ac:	27          	ulessthanorequal
    16ad:	9e          	im 30
    16ae:	38          	neqbranch
    16af:	76          	loadsp 24
    16b0:	8f          	im 15
    16b1:	2a          	lshiftright
    16b2:	80          	im 0
    16b3:	f7          	im -9
    16b4:	05          	add
    16b5:	55          	storesp 20
    16b6:	82          	im 2
    16b7:	d4          	im -44
    16b8:	73          	loadsp 12
    16b9:	27          	ulessthanorequal
    16ba:	91          	im 17
    16bb:	38          	neqbranch
    16bc:	76          	loadsp 24
    16bd:	92          	im 18
    16be:	2a          	lshiftright
    16bf:	80          	im 0
    16c0:	fc          	im -4
    16c1:	05          	add
    16c2:	55          	storesp 20
    16c3:	8a          	im 10
    16c4:	d4          	im -44
    16c5:	73          	loadsp 12
    16c6:	27          	ulessthanorequal
    16c7:	84          	im 4
    16c8:	38          	neqbranch
    16c9:	80          	im 0
    16ca:	fe          	im -2
    16cb:	55          	storesp 20

000016cc <.L28>:
    16cc:	74          	loadsp 16
    16cd:	10          	addsp 0
    16ce:	10          	addsp 0
    16cf:	10          	addsp 0
    16d0:	80          	im 0
    16d1:	d6          	im -42
    16d2:	fc          	im -4
    16d3:	05          	add
    16d4:	88          	im 8
    16d5:	11          	addsp 4
    16d6:	08          	load
    16d7:	55          	storesp 20
    16d8:	56          	storesp 24
    16d9:	73          	loadsp 12
    16da:	76          	loadsp 24
    16db:	2e          	eq
    16dc:	82          	im 2
    16dd:	b3          	im 51
    16de:	38          	neqbranch

000016df <.L46>:
    16df:	84          	im 4
    16e0:	14          	addsp 16
    16e1:	08          	load
    16e2:	fc          	im -4
    16e3:	06          	and
    16e4:	53          	storesp 12
    16e5:	76          	loadsp 24
    16e6:	73          	loadsp 12
    16e7:	27          	ulessthanorequal
    16e8:	8d          	im 13
    16e9:	38          	neqbranch
    16ea:	88          	im 8
    16eb:	14          	addsp 16
    16ec:	08          	load
    16ed:	54          	storesp 16
    16ee:	73          	loadsp 12
    16ef:	76          	loadsp 24
    16f0:	2e          	eq
    16f1:	09          	not
    16f2:	81          	im 1
    16f3:	06          	and
    16f4:	ea          	im -22
    16f5:	38          	neqbranch

000016f6 <.L43>:
    16f6:	8c          	im 12
    16f7:	14          	addsp 16
    16f8:	08          	load
    16f9:	70          	loadsp 0
    16fa:	8c          	im 12
    16fb:	1a          	addsp 40
    16fc:	0c          	store
    16fd:	74          	loadsp 16
    16fe:	88          	im 8
    16ff:	1a          	addsp 40
    1700:	0c          	store
    1701:	78          	loadsp 32
    1702:	88          	im 8
    1703:	12          	addsp 8
    1704:	0c          	store
    1705:	56          	storesp 24
    1706:	77          	loadsp 28
    1707:	8c          	im 12
    1708:	15          	addsp 20
    1709:	0c          	store

0000170a <.L23>:
    170a:	7a          	loadsp 40
    170b:	51          	storesp 4
    170c:	93          	im 19
    170d:	89          	im 9
    170e:	3f          	callpcrel

0000170f <.L12>:
    170f:	8c          	im 12
    1710:	3d          	pushspadd
    1711:	0d          	popsp
    1712:	04          	poppc

00001713 <.L50>:
    1713:	77          	loadsp 28
    1714:	08          	load

00001715 <.LM48>:
    1715:	78          	loadsp 32
    1716:	71          	loadsp 4
    1717:	31          	sub

00001718 <.LM49>:
    1718:	59          	storesp 36
    1719:	77          	loadsp 28
    171a:	05          	add

0000171b <.LM50>:
    171b:	88          	im 8
    171c:	19          	addsp 36
    171d:	08          	load
    171e:	54          	storesp 16
    171f:	57          	storesp 28
    1720:	72          	loadsp 8
    1721:	80          	im 0
    1722:	d7          	im -41
    1723:	84          	im 4
    1724:	2e          	eq
    1725:	80          	im 0
    1726:	e0          	im -32
    1727:	38          	neqbranch

00001728 <.LM51>:
    1728:	8c          	im 12
    1729:	18          	addsp 32
    172a:	08          	load
    172b:	70          	loadsp 0
    172c:	8c          	im 12
    172d:	15          	addsp 20
    172e:	0c          	store
    172f:	73          	loadsp 12
    1730:	88          	im 8
    1731:	12          	addsp 8
    1732:	0c          	store
    1733:	56          	storesp 24
    1734:	fe          	im -2
    1735:	89          	im 9
    1736:	39          	poppcrel

00001737 <.L47>:
    1737:	88          	im 8
    1738:	15          	addsp 20
    1739:	08          	load

0000173a <.LM52>:
    173a:	8c          	im 12
    173b:	16          	addsp 24
    173c:	08          	load
    173d:	70          	loadsp 0
    173e:	8c          	im 12
    173f:	13          	addsp 12
    1740:	0c          	store
    1741:	57          	storesp 28
    1742:	88          	im 8
    1743:	17          	addsp 28
    1744:	0c          	store
    1745:	fe          	im -2
    1746:	a3          	im 35
    1747:	39          	poppcrel

00001748 <.L52>:
    1748:	76          	loadsp 24
    1749:	83          	im 3
    174a:	2a          	lshiftright
    174b:	70          	loadsp 0
    174c:	54          	storesp 16
    174d:	55          	storesp 20
    174e:	80          	im 0
    174f:	75          	loadsp 20
    1750:	24          	lessthan
    1751:	81          	im 1
    1752:	98          	im 24
    1753:	38          	neqbranch
    1754:	72          	loadsp 8
    1755:	82          	im 2
    1756:	2c          	ashiftright
    1757:	81          	im 1
    1758:	71          	loadsp 4
    1759:	2b          	ashiftleft
    175a:	80          	im 0
    175b:	d7          	im -41
    175c:	80          	im 0
    175d:	08          	load
    175e:	07          	or
    175f:	80          	im 0
    1760:	d6          	im -42
    1761:	fc          	im -4
    1762:	0b          	nop
    1763:	84          	im 4
    1764:	05          	add
    1765:	0c          	store
    1766:	53          	storesp 12
    1767:	74          	loadsp 16
    1768:	10          	addsp 0
    1769:	10          	addsp 0
    176a:	10          	addsp 0
    176b:	80          	im 0
    176c:	d6          	im -42
    176d:	fc          	im -4
    176e:	05          	add
    176f:	88          	im 8
    1770:	11          	addsp 4
    1771:	08          	load
    1772:	55          	storesp 20
    1773:	56          	storesp 24

00001774 <.L56>:
    1774:	75          	loadsp 20
    1775:	8c          	im 12
    1776:	19          	addsp 36
    1777:	0c          	store
    1778:	73          	loadsp 12
    1779:	88          	im 8
    177a:	19          	addsp 36
    177b:	0c          	store
    177c:	77          	loadsp 28
    177d:	88          	im 8
    177e:	17          	addsp 28
    177f:	0c          	store
    1780:	77          	loadsp 28
    1781:	8c          	im 12
    1782:	15          	addsp 20
    1783:	0c          	store
    1784:	ff          	im -1
    1785:	84          	im 4
    1786:	39          	poppcrel

00001787 <.L54>:
    1787:	81          	im 1
    1788:	5a          	storesp 40
    1789:	fd          	im -3
    178a:	b4          	im 52
    178b:	39          	poppcrel

0000178c <.L49>:
    178c:	78          	loadsp 32
    178d:	17          	addsp 28

0000178e <.LM56>:
    178e:	73          	loadsp 12
    178f:	81          	im 1
    1790:	06          	and
    1791:	54          	storesp 16
    1792:	57          	storesp 28
    1793:	72          	loadsp 8
    1794:	98          	im 24
    1795:	38          	neqbranch

00001796 <.LM57>:
    1796:	77          	loadsp 28
    1797:	08          	load

00001798 <.LM58>:
    1798:	78          	loadsp 32
    1799:	71          	loadsp 4
    179a:	31          	sub

0000179b <.LM59>:
    179b:	59          	storesp 36
    179c:	77          	loadsp 28
    179d:	05          	add

0000179e <.LM60>:
    179e:	8c          	im 12
    179f:	19          	addsp 36
    17a0:	08          	load
    17a1:	88          	im 8
    17a2:	1a          	addsp 40
    17a3:	08          	load
    17a4:	71          	loadsp 4
    17a5:	8c          	im 12
    17a6:	12          	addsp 8
    17a7:	0c          	store
    17a8:	88          	im 8
    17a9:	12          	addsp 8
    17aa:	0c          	store
    17ab:	57          	storesp 28
    17ac:	57          	storesp 28

000017ad <.L15>:
    17ad:	76          	loadsp 24
    17ae:	81          	im 1
    17af:	07          	or
    17b0:	84          	im 4
    17b1:	19          	addsp 36
    17b2:	0c          	store

000017b3 <.LM62>:
    17b3:	77          	loadsp 28
    17b4:	80          	im 0
    17b5:	d6          	im -42
    17b6:	fc          	im -4
    17b7:	0b          	nop
    17b8:	88          	im 8
    17b9:	05          	add
    17ba:	0c          	store

000017bb <.LM63>:
    17bb:	80          	im 0
    17bc:	d6          	im -42
    17bd:	f8          	im -8
    17be:	08          	load
    17bf:	77          	loadsp 28
    17c0:	26          	ulessthan
    17c1:	fe          	im -2
    17c2:	c7          	im -57
    17c3:	38          	neqbranch

000017c4 <.LM64>:
    17c4:	80          	im 0
    17c5:	d6          	im -42
    17c6:	f4          	im -12
    17c7:	08          	load
    17c8:	52          	storesp 8
    17c9:	7a          	loadsp 40
    17ca:	51          	storesp 4
    17cb:	fa          	im -6
    17cc:	fd          	im -3
    17cd:	3f          	callpcrel

000017ce <.LM65>:
    17ce:	7a          	loadsp 40
    17cf:	51          	storesp 4
    17d0:	91          	im 17
    17d1:	c5          	im -59
    17d2:	3f          	callpcrel
    17d3:	fe          	im -2
    17d4:	ba          	im 58
    17d5:	39          	poppcrel

000017d6 <.L51>:
    17d6:	81          	im 1

000017d7 <.LM67>:
    17d7:	78          	loadsp 32
    17d8:	8c          	im 12
    17d9:	15          	addsp 20
    17da:	0c          	store
    17db:	78          	loadsp 32
    17dc:	88          	im 8
    17dd:	15          	addsp 20
    17de:	0c          	store
    17df:	73          	loadsp 12
    17e0:	8c          	im 12
    17e1:	1a          	addsp 40
    17e2:	0c          	store
    17e3:	73          	loadsp 12
    17e4:	88          	im 8
    17e5:	1a          	addsp 40
    17e6:	0c          	store
    17e7:	5a          	storesp 40
    17e8:	fd          	im -3
    17e9:	80          	im 0
    17ea:	39          	poppcrel

000017eb <.L55>:
    17eb:	83          	im 3
    17ec:	15          	addsp 20
    17ed:	70          	loadsp 0
    17ee:	82          	im 2
    17ef:	2c          	ashiftright
    17f0:	81          	im 1
    17f1:	71          	loadsp 4
    17f2:	2b          	ashiftleft
    17f3:	80          	im 0
    17f4:	d7          	im -41
    17f5:	80          	im 0
    17f6:	08          	load
    17f7:	07          	or
    17f8:	80          	im 0
    17f9:	d6          	im -42
    17fa:	fc          	im -4
    17fb:	0b          	nop
    17fc:	84          	im 4
    17fd:	05          	add
    17fe:	0c          	store
    17ff:	51          	storesp 4
    1800:	53          	storesp 12
    1801:	74          	loadsp 16
    1802:	10          	addsp 0
    1803:	10          	addsp 0
    1804:	10          	addsp 0
    1805:	80          	im 0
    1806:	d6          	im -42
    1807:	fc          	im -4
    1808:	05          	add
    1809:	88          	im 8
    180a:	11          	addsp 4
    180b:	08          	load
    180c:	55          	storesp 20
    180d:	56          	storesp 24
    180e:	fe          	im -2
    180f:	e4          	im -28
    1810:	39          	poppcrel

00001811 <.L53>:
    1811:	74          	loadsp 16
    1812:	53          	storesp 12
    1813:	80          	im 0
    1814:	75          	loadsp 20
    1815:	24          	lessthan
    1816:	a7          	im 39
    1817:	38          	neqbranch
    1818:	72          	loadsp 8
    1819:	82          	im 2
    181a:	2c          	ashiftright
    181b:	81          	im 1
    181c:	71          	loadsp 4
    181d:	2b          	ashiftleft
    181e:	80          	im 0
    181f:	d7          	im -41
    1820:	80          	im 0
    1821:	08          	load
    1822:	07          	or
    1823:	80          	im 0
    1824:	d6          	im -42
    1825:	fc          	im -4
    1826:	0b          	nop
    1827:	84          	im 4
    1828:	05          	add
    1829:	0c          	store
    182a:	53          	storesp 12

0000182b <.L58>:
    182b:	75          	loadsp 20
    182c:	8c          	im 12
    182d:	19          	addsp 36
    182e:	0c          	store
    182f:	73          	loadsp 12
    1830:	88          	im 8
    1831:	19          	addsp 36
    1832:	0c          	store
    1833:	77          	loadsp 28
    1834:	88          	im 8
    1835:	17          	addsp 28
    1836:	0c          	store
    1837:	77          	loadsp 28
    1838:	8c          	im 12
    1839:	15          	addsp 20
    183a:	0c          	store
    183b:	fd          	im -3
    183c:	cd          	im -51
    183d:	39          	poppcrel

0000183e <.L57>:
    183e:	83          	im 3
    183f:	15          	addsp 20
    1840:	70          	loadsp 0
    1841:	82          	im 2
    1842:	2c          	ashiftright
    1843:	81          	im 1
    1844:	71          	loadsp 4
    1845:	2b          	ashiftleft
    1846:	80          	im 0
    1847:	d7          	im -41
    1848:	80          	im 0
    1849:	08          	load
    184a:	07          	or
    184b:	80          	im 0
    184c:	d6          	im -42
    184d:	fc          	im -4
    184e:	0b          	nop
    184f:	84          	im 4
    1850:	05          	add
    1851:	0c          	store
    1852:	51          	storesp 4
    1853:	53          	storesp 12
    1854:	d6          	im -42
    1855:	39          	poppcrel

00001856 <_fwalk>:
    1856:	f9          	im -7
    1857:	3d          	pushspadd
    1858:	0d          	popsp
    1859:	79          	loadsp 36
    185a:	7b          	loadsp 44
    185b:	58          	storesp 32
    185c:	53          	storesp 12

0000185d <.LM2>:
    185d:	80          	im 0

0000185e <.LM3>:
    185e:	0b          	nop
    185f:	80          	im 0
    1860:	cf          	im -49
    1861:	c0          	im -64
    1862:	08          	load
    1863:	53          	storesp 12
    1864:	56          	storesp 24
    1865:	72          	loadsp 8
    1866:	72          	loadsp 8
    1867:	2e          	eq
    1868:	80          	im 0
    1869:	c0          	im -64
    186a:	38          	neqbranch

0000186b <.LM4>:
    186b:	84          	im 4
    186c:	dc          	im -36
    186d:	13          	addsp 12
    186e:	55          	storesp 20
    186f:	74          	loadsp 16
    1870:	76          	loadsp 24
    1871:	2e          	eq
    1872:	b7          	im 55
    1873:	38          	neqbranch

00001874 <.L11>:
    1874:	88          	im 8
    1875:	15          	addsp 20
    1876:	08          	load
    1877:	84          	im 4
    1878:	16          	addsp 24
    1879:	08          	load
    187a:	ff          	im -1
    187b:	05          	add
    187c:	54          	storesp 16
    187d:	54          	storesp 16
    187e:	80          	im 0
    187f:	73          	loadsp 12
    1880:	24          	lessthan
    1881:	9d          	im 29
    1882:	38          	neqbranch

00001883 <.L33>:
    1883:	8c          	im 12
    1884:	14          	addsp 16
    1885:	22          	loadh
    1886:	70          	loadsp 0
    1887:	90          	im 16
    1888:	2b          	ashiftleft
    1889:	70          	loadsp 0
    188a:	90          	im 16
    188b:	2c          	ashiftright
    188c:	51          	storesp 4
    188d:	53          	storesp 12
    188e:	58          	storesp 32
    188f:	71          	loadsp 4
    1890:	80          	im 0
    1891:	d8          	im -40
    1892:	38          	neqbranch

00001893 <.LM7>:
    1893:	80          	im 0
    1894:	dc          	im -36
    1895:	14          	addsp 16
    1896:	ff          	im -1
    1897:	14          	addsp 16
    1898:	54          	storesp 16
    1899:	54          	storesp 16

0000189a <.L37>:
    189a:	72          	loadsp 8
    189b:	80          	im 0
    189c:	25          	lessthanorequal
    189d:	e5          	im -27
    189e:	38          	neqbranch

0000189f <.L23>:
    189f:	74          	loadsp 16
    18a0:	08          	load
    18a1:	55          	storesp 20
    18a2:	74          	loadsp 16
    18a3:	d0          	im -48
    18a4:	38          	neqbranch
    18a5:	80          	im 0
    18a6:	cf          	im -49
    18a7:	c0          	im -64
    18a8:	08          	load
    18a9:	52          	storesp 8

000018aa <.L2>:
    18aa:	84          	im 4
    18ab:	dc          	im -36
    18ac:	12          	addsp 8
    18ad:	55          	storesp 20
    18ae:	74          	loadsp 16
    18af:	80          	im 0
    18b0:	2e          	eq
    18b1:	b1          	im 49
    18b2:	38          	neqbranch

000018b3 <.L36>:
    18b3:	88          	im 8
    18b4:	15          	addsp 20
    18b5:	08          	load
    18b6:	84          	im 4
    18b7:	16          	addsp 24
    18b8:	08          	load
    18b9:	ff          	im -1
    18ba:	05          	add
    18bb:	54          	storesp 16
    18bc:	54          	storesp 16
    18bd:	80          	im 0
    18be:	73          	loadsp 12
    18bf:	24          	lessthan
    18c0:	9c          	im 28
    18c1:	38          	neqbranch

000018c2 <.L35>:
    18c2:	8c          	im 12
    18c3:	14          	addsp 16
    18c4:	22          	loadh
    18c5:	70          	loadsp 0
    18c6:	90          	im 16
    18c7:	2b          	ashiftleft
    18c8:	70          	loadsp 0
    18c9:	90          	im 16
    18ca:	2c          	ashiftright
    18cb:	51          	storesp 4
    18cc:	53          	storesp 12
    18cd:	58          	storesp 32
    18ce:	71          	loadsp 4
    18cf:	ad          	im 45
    18d0:	38          	neqbranch

000018d1 <.LM12>:
    18d1:	80          	im 0
    18d2:	dc          	im -36
    18d3:	14          	addsp 16
    18d4:	ff          	im -1
    18d5:	14          	addsp 16
    18d6:	54          	storesp 16
    18d7:	54          	storesp 16

000018d8 <.L38>:
    18d8:	72          	loadsp 8
    18d9:	80          	im 0
    18da:	25          	lessthanorequal
    18db:	e6          	im -26
    18dc:	38          	neqbranch

000018dd <.L27>:
    18dd:	74          	loadsp 16
    18de:	08          	load
    18df:	55          	storesp 20
    18e0:	74          	loadsp 16
    18e1:	d1          	im -47
    18e2:	38          	neqbranch

000018e3 <.L25>:
    18e3:	75          	loadsp 20
    18e4:	90          	im 16
    18e5:	0c          	store
    18e6:	89          	im 9
    18e7:	3d          	pushspadd
    18e8:	0d          	popsp
    18e9:	04          	poppc

000018ea <.L32>:
    18ea:	73          	loadsp 12
    18eb:	51          	storesp 4
    18ec:	76          	loadsp 24
    18ed:	2d          	call
    18ee:	75          	loadsp 20
    18ef:	90          	im 16
    18f0:	08          	load
    18f1:	07          	or

000018f2 <.LM16>:
    18f2:	80          	im 0
    18f3:	dc          	im -36
    18f4:	15          	addsp 20
    18f5:	ff          	im -1
    18f6:	15          	addsp 20
    18f7:	55          	storesp 20
    18f8:	55          	storesp 20
    18f9:	56          	storesp 24
    18fa:	ff          	im -1
    18fb:	9e          	im 30
    18fc:	39          	poppcrel

000018fd <.L34>:
    18fd:	73          	loadsp 12
    18fe:	51          	storesp 4
    18ff:	76          	loadsp 24
    1900:	2d          	call
    1901:	75          	loadsp 20
    1902:	90          	im 16
    1903:	08          	load
    1904:	07          	or

00001905 <.LM18>:
    1905:	80          	im 0
    1906:	dc          	im -36
    1907:	15          	addsp 20
    1908:	ff          	im -1
    1909:	15          	addsp 20
    190a:	55          	storesp 20
    190b:	55          	storesp 20
    190c:	56          	storesp 24
    190d:	ca          	im -54
    190e:	39          	poppcrel

0000190f <__smakebuf>:
    190f:	ea          	im -22
    1910:	3d          	pushspadd
    1911:	0d          	popsp
    1912:	68          	loadsp 96

00001913 <.LM2>:
    1913:	8c          	im 12
    1914:	11          	addsp 4
    1915:	22          	loadh
    1916:	70          	loadsp 0
    1917:	81          	im 1
    1918:	2a          	lshiftright
    1919:	81          	im 1
    191a:	06          	and
    191b:	57          	storesp 28
    191c:	58          	storesp 32
    191d:	56          	storesp 24
    191e:	74          	loadsp 16
    191f:	80          	im 0
    1920:	e4          	im -28
    1921:	38          	neqbranch

00001922 <.LM3>:
    1922:	8e          	im 14
    1923:	16          	addsp 24
    1924:	22          	loadh
    1925:	70          	loadsp 0
    1926:	90          	im 16
    1927:	2b          	ashiftleft
    1928:	70          	loadsp 0
    1929:	90          	im 16
    192a:	2c          	ashiftright
    192b:	51          	storesp 4
    192c:	55          	storesp 20
    192d:	58          	storesp 32
    192e:	80          	im 0
    192f:	74          	loadsp 16
    1930:	24          	lessthan
    1931:	b1          	im 49
    1932:	38          	neqbranch
    1933:	98          	im 24
    1934:	3d          	pushspadd
    1935:	c4          	im -60
    1936:	05          	add
    1937:	53          	storesp 12
    1938:	73          	loadsp 12
    1939:	52          	storesp 8
    193a:	80          	im 0
    193b:	cf          	im -49
    193c:	c0          	im -64
    193d:	08          	load
    193e:	51          	storesp 4
    193f:	92          	im 18
    1940:	ac          	im 44
    1941:	3f          	callpcrel
    1942:	80          	im 0
    1943:	0b          	nop
    1944:	90          	im 16
    1945:	08          	load
    1946:	24          	lessthan
    1947:	97          	im 23
    1948:	38          	neqbranch

00001949 <.LM4>:
    1949:	79          	loadsp 36
    194a:	83          	im 3
    194b:	e0          	im -32
    194c:	80          	im 0
    194d:	06          	and
    194e:	54          	storesp 16
    194f:	73          	loadsp 12
    1950:	80          	im 0
    1951:	c0          	im -64
    1952:	80          	im 0
    1953:	2e          	eq
    1954:	81          	im 1
    1955:	8f          	im 15
    1956:	38          	neqbranch

00001957 <.LM5>:
    1957:	73          	loadsp 12
    1958:	82          	im 2
    1959:	80          	im 0
    195a:	80          	im 0
    195b:	2e          	eq
    195c:	81          	im 1
    195d:	91          	im 17
    195e:	38          	neqbranch

0000195f <.L7>:
    195f:	8c          	im 12
    1960:	16          	addsp 24
    1961:	22          	loadh
    1962:	57          	storesp 28

00001963 <.L12>:
    1963:	76          	loadsp 24
    1964:	90          	im 16
    1965:	80          	im 0
    1966:	07          	or
    1967:	54          	storesp 16
    1968:	73          	loadsp 12
    1969:	8c          	im 12
    196a:	17          	addsp 28
    196b:	23          	storeh

0000196c <.L5>:
    196c:	88          	im 8
    196d:	80          	im 0
    196e:	52          	storesp 8
    196f:	80          	im 0
    1970:	cf          	im -49
    1971:	c0          	im -64
    1972:	08          	load
    1973:	51          	storesp 4
    1974:	81          	im 1
    1975:	9b          	im 27
    1976:	3f          	callpcrel
    1977:	90          	im 16
    1978:	08          	load
    1979:	9d          	im 29
    197a:	38          	neqbranch

0000197b <.LM8>:
    197b:	8c          	im 12
    197c:	16          	addsp 24
    197d:	22          	loadh
    197e:	82          	im 2
    197f:	07          	or
    1980:	54          	storesp 16
    1981:	73          	loadsp 12
    1982:	8c          	im 12
    1983:	17          	addsp 28
    1984:	23          	storeh

00001985 <.L13>:
    1985:	80          	im 0
    1986:	c3          	im -61
    1987:	16          	addsp 24
    1988:	70          	loadsp 0
    1989:	77          	loadsp 28
    198a:	0c          	store
    198b:	90          	im 16
    198c:	17          	addsp 28
    198d:	0c          	store

0000198e <.LM10>:
    198e:	81          	im 1
    198f:	0b          	nop
    1990:	94          	im 20
    1991:	17          	addsp 28
    1992:	0c          	store

00001993 <.L1>:
    1993:	98          	im 24
    1994:	3d          	pushspadd
    1995:	0d          	popsp
    1996:	04          	poppc

00001997 <.L9>:
    1997:	80          	im 0
    1998:	cf          	im -49
    1999:	c0          	im -64
    199a:	08          	load
    199b:	aa          	im 42
    199c:	ad          	im 45
    199d:	0b          	nop
    199e:	bc          	im 60
    199f:	12          	addsp 8
    19a0:	0c          	store
    19a1:	54          	storesp 16

000019a2 <.LM13>:
    19a2:	8c          	im 12
    19a3:	16          	addsp 24
    19a4:	22          	loadh
    19a5:	81          	im 1
    19a6:	80          	im 0
    19a7:	07          	or
    19a8:	54          	storesp 16
    19a9:	73          	loadsp 12
    19aa:	8c          	im 12
    19ab:	17          	addsp 28
    19ac:	23          	storeh

000019ad <.LM14>:
    19ad:	90          	im 16
    19ae:	08          	load
    19af:	76          	loadsp 24
    19b0:	0c          	store
    19b1:	90          	im 16
    19b2:	08          	load
    19b3:	90          	im 16
    19b4:	17          	addsp 28
    19b5:	0c          	store

000019b6 <.LM15>:
    19b6:	88          	im 8
    19b7:	80          	im 0
    19b8:	0b          	nop
    19b9:	94          	im 20
    19ba:	17          	addsp 28
    19bb:	0c          	store

000019bc <.LM16>:
    19bc:	74          	loadsp 16
    19bd:	80          	im 0
    19be:	2e          	eq
    19bf:	d3          	im -45
    19c0:	38          	neqbranch
    19c1:	8e          	im 14
    19c2:	16          	addsp 24
    19c3:	22          	loadh
    19c4:	70          	loadsp 0
    19c5:	90          	im 16
    19c6:	2b          	ashiftleft
    19c7:	70          	loadsp 0
    19c8:	90          	im 16
    19c9:	2c          	ashiftright
    19ca:	53          	storesp 12
    19cb:	55          	storesp 20
    19cc:	58          	storesp 32
    19cd:	98          	im 24
    19ce:	a2          	im 34
    19cf:	3f          	callpcrel
    19d0:	90          	im 16
    19d1:	08          	load
    19d2:	80          	im 0
    19d3:	2e          	eq
    19d4:	ff          	im -1
    19d5:	bd          	im 61
    19d6:	38          	neqbranch

000019d7 <.LM17>:
    19d7:	8c          	im 12
    19d8:	16          	addsp 24
    19d9:	22          	loadh
    19da:	81          	im 1
    19db:	07          	or
    19dc:	54          	storesp 16
    19dd:	73          	loadsp 12
    19de:	8c          	im 12
    19df:	17          	addsp 28
    19e0:	23          	storeh

000019e1 <.LM18>:
    19e1:	98          	im 24
    19e2:	3d          	pushspadd
    19e3:	0d          	popsp
    19e4:	04          	poppc

000019e5 <.L15>:
    19e5:	81          	im 1

000019e6 <.LM20>:
    19e6:	0b          	nop
    19e7:	8c          	im 12
    19e8:	17          	addsp 28
    19e9:	22          	loadh
    19ea:	58          	storesp 32
    19eb:	55          	storesp 20
    19ec:	fe          	im -2
    19ed:	f5          	im -11
    19ee:	39          	poppcrel

000019ef <.L16>:
    19ef:	a8          	im 40
    19f0:	16          	addsp 24
    19f1:	08          	load
    19f2:	80          	im 0
    19f3:	c3          	im -61
    19f4:	94          	im 20
    19f5:	2e          	eq
    19f6:	09          	not
    19f7:	81          	im 1
    19f8:	06          	and
    19f9:	fe          	im -2
    19fa:	e4          	im -28
    19fb:	38          	neqbranch

000019fc <.LM22>:
    19fc:	8c          	im 12
    19fd:	16          	addsp 24
    19fe:	22          	loadh
    19ff:	88          	im 8
    1a00:	80          	im 0
    1a01:	07          	or
    1a02:	54          	storesp 16
    1a03:	73          	loadsp 12
    1a04:	8c          	im 12
    1a05:	17          	addsp 28
    1a06:	23          	storeh

00001a07 <.LM23>:
    1a07:	88          	im 8
    1a08:	80          	im 0
    1a09:	0b          	nop
    1a0a:	80          	im 0
    1a0b:	cc          	im -52
    1a0c:	17          	addsp 28
    1a0d:	0c          	store
    1a0e:	fe          	im -2
    1a0f:	dc          	im -36
    1a10:	39          	poppcrel

00001a11 <_malloc_r>:
    1a11:	f3          	im -13
    1a12:	3d          	pushspadd
    1a13:	0d          	popsp
    1a14:	7f          	loadsp 60
    1a15:	61          	loadsp 68

00001a16 <.LM2>:
    1a16:	8b          	im 11
    1a17:	11          	addsp 4
    1a18:	70          	loadsp 0
    1a19:	f8          	im -8
    1a1a:	06          	and
    1a1b:	5c          	storesp 48
    1a1c:	55          	storesp 20
    1a1d:	55          	storesp 20
    1a1e:	5e          	storesp 56
    1a1f:	72          	loadsp 8
    1a20:	96          	im 22
    1a21:	26          	ulessthan
    1a22:	83          	im 3
    1a23:	38          	neqbranch
    1a24:	90          	im 16
    1a25:	59          	storesp 36

00001a26 <.L3>:
    1a26:	80          	im 0
    1a27:	79          	loadsp 36
    1a28:	24          	lessthan
    1a29:	74          	loadsp 16
    1a2a:	7a          	loadsp 40
    1a2b:	26          	ulessthan
    1a2c:	07          	or
    1a2d:	53          	storesp 12

00001a2e <.LM4>:
    1a2e:	80          	im 0
    1a2f:	54          	storesp 16

00001a30 <.LM5>:
    1a30:	72          	loadsp 8
    1a31:	74          	loadsp 16
    1a32:	2e          	eq
    1a33:	09          	not
    1a34:	81          	im 1
    1a35:	06          	and
    1a36:	80          	im 0
    1a37:	cb          	im -53
    1a38:	38          	neqbranch

00001a39 <.LM6>:
    1a39:	7d          	loadsp 52
    1a3a:	51          	storesp 4
    1a3b:	8c          	im 12
    1a3c:	d9          	im -39
    1a3d:	3f          	callpcrel

00001a3e <.LM7>:
    1a3e:	78          	loadsp 32
    1a3f:	83          	im 3
    1a40:	f7          	im -9
    1a41:	26          	ulessthan
    1a42:	80          	im 0
    1a43:	c6          	im -58
    1a44:	38          	neqbranch

00001a45 <.LM8>:
    1a45:	78          	loadsp 32
    1a46:	83          	im 3
    1a47:	2a          	lshiftright

00001a48 <.LM9>:
    1a48:	70          	loadsp 0
    1a49:	10          	addsp 0
    1a4a:	10          	addsp 0
    1a4b:	10          	addsp 0
    1a4c:	80          	im 0
    1a4d:	d6          	im -42
    1a4e:	fc          	im -4
    1a4f:	05          	add

00001a50 <.LM10>:
    1a50:	8c          	im 12
    1a51:	11          	addsp 4
    1a52:	08          	load
    1a53:	59          	storesp 36
    1a54:	59          	storesp 36
    1a55:	5a          	storesp 40

00001a56 <.LM11>:
    1a56:	76          	loadsp 24
    1a57:	78          	loadsp 32
    1a58:	2e          	eq
    1a59:	83          	im 3
    1a5a:	b0          	im 48
    1a5b:	38          	neqbranch

00001a5c <.L103>:
    1a5c:	84          	im 4
    1a5d:	17          	addsp 28
    1a5e:	08          	load
    1a5f:	fc          	im -4
    1a60:	06          	and
    1a61:	56          	storesp 24

00001a62 <.L117>:
    1a62:	8c          	im 12
    1a63:	17          	addsp 28
    1a64:	08          	load
    1a65:	88          	im 8
    1a66:	18          	addsp 32
    1a67:	08          	load
    1a68:	71          	loadsp 4
    1a69:	8c          	im 12
    1a6a:	12          	addsp 8
    1a6b:	0c          	store
    1a6c:	88          	im 8
    1a6d:	12          	addsp 8
    1a6e:	0c          	store
    1a6f:	58          	storesp 32

00001a70 <.L131>:
    1a70:	75          	loadsp 20
    1a71:	17          	addsp 28
    1a72:	84          	im 4
    1a73:	11          	addsp 4
    1a74:	08          	load
    1a75:	81          	im 1
    1a76:	07          	or
    1a77:	84          	im 4
    1a78:	12          	addsp 8
    1a79:	0c          	store
    1a7a:	53          	storesp 12

00001a7b <.LM15>:
    1a7b:	7d          	loadsp 52
    1a7c:	51          	storesp 4
    1a7d:	8c          	im 12
    1a7e:	98          	im 24
    1a7f:	3f          	callpcrel

00001a80 <.LM16>:
    1a80:	88          	im 8
    1a81:	17          	addsp 28
    1a82:	54          	storesp 16

00001a83 <.L1>:
    1a83:	73          	loadsp 12
    1a84:	90          	im 16
    1a85:	0c          	store
    1a86:	8f          	im 15
    1a87:	3d          	pushspadd
    1a88:	0d          	popsp
    1a89:	04          	poppc

00001a8a <.L7>:
    1a8a:	78          	loadsp 32
    1a8b:	89          	im 9
    1a8c:	2a          	lshiftright
    1a8d:	79          	loadsp 36
    1a8e:	83          	im 3
    1a8f:	2a          	lshiftright
    1a90:	5b          	storesp 44
    1a91:	53          	storesp 12
    1a92:	72          	loadsp 8
    1a93:	80          	im 0
    1a94:	2e          	eq
    1a95:	bf          	im 63
    1a96:	38          	neqbranch
    1a97:	78          	loadsp 32
    1a98:	86          	im 6
    1a99:	2a          	lshiftright
    1a9a:	b8          	im 56
    1a9b:	05          	add
    1a9c:	5a          	storesp 40
    1a9d:	84          	im 4
    1a9e:	73          	loadsp 12
    1a9f:	27          	ulessthanorequal
    1aa0:	b4          	im 52
    1aa1:	38          	neqbranch
    1aa2:	80          	im 0
    1aa3:	db          	im -37
    1aa4:	13          	addsp 12
    1aa5:	5a          	storesp 40
    1aa6:	94          	im 20
    1aa7:	73          	loadsp 12
    1aa8:	27          	ulessthanorequal
    1aa9:	ab          	im 43
    1aaa:	38          	neqbranch
    1aab:	78          	loadsp 32
    1aac:	8c          	im 12
    1aad:	2a          	lshiftright
    1aae:	80          	im 0
    1aaf:	ee          	im -18
    1ab0:	05          	add
    1ab1:	5a          	storesp 40
    1ab2:	80          	im 0
    1ab3:	d4          	im -44
    1ab4:	73          	loadsp 12
    1ab5:	27          	ulessthanorequal
    1ab6:	9e          	im 30
    1ab7:	38          	neqbranch
    1ab8:	78          	loadsp 32
    1ab9:	8f          	im 15
    1aba:	2a          	lshiftright
    1abb:	80          	im 0
    1abc:	f7          	im -9
    1abd:	05          	add
    1abe:	5a          	storesp 40
    1abf:	82          	im 2
    1ac0:	d4          	im -44
    1ac1:	73          	loadsp 12
    1ac2:	27          	ulessthanorequal
    1ac3:	91          	im 17
    1ac4:	38          	neqbranch
    1ac5:	78          	loadsp 32
    1ac6:	92          	im 18
    1ac7:	2a          	lshiftright
    1ac8:	80          	im 0
    1ac9:	fc          	im -4
    1aca:	05          	add
    1acb:	5a          	storesp 40
    1acc:	8a          	im 10
    1acd:	d4          	im -44
    1ace:	73          	loadsp 12
    1acf:	27          	ulessthanorequal
    1ad0:	84          	im 4
    1ad1:	38          	neqbranch
    1ad2:	80          	im 0
    1ad3:	fe          	im -2
    1ad4:	5a          	storesp 40

00001ad5 <.L12>:
    1ad5:	79          	loadsp 36
    1ad6:	10          	addsp 0
    1ad7:	10          	addsp 0
    1ad8:	10          	addsp 0
    1ad9:	80          	im 0
    1ada:	d6          	im -42
    1adb:	fc          	im -4
    1adc:	05          	add

00001add <.LM20>:
    1add:	8c          	im 12
    1ade:	11          	addsp 4
    1adf:	08          	load
    1ae0:	58          	storesp 32
    1ae1:	55          	storesp 20
    1ae2:	76          	loadsp 24
    1ae3:	75          	loadsp 20
    1ae4:	2e          	eq
    1ae5:	a3          	im 35
    1ae6:	38          	neqbranch

00001ae7 <.L134>:
    1ae7:	84          	im 4
    1ae8:	17          	addsp 28
    1ae9:	08          	load
    1aea:	fc          	im -4
    1aeb:	06          	and

00001aec <.LM22>:
    1aec:	70          	loadsp 0
    1aed:	7a          	loadsp 40
    1aee:	31          	sub
    1aef:	55          	storesp 20
    1af0:	56          	storesp 24

00001af1 <.LM23>:
    1af1:	73          	loadsp 12
    1af2:	8f          	im 15
    1af3:	24          	lessthan
    1af4:	88          	im 8
    1af5:	d5          	im -43
    1af6:	38          	neqbranch

00001af7 <.LM24>:
    1af7:	73          	loadsp 12
    1af8:	80          	im 0
    1af9:	25          	lessthanorequal
    1afa:	fe          	im -2
    1afb:	e6          	im -26
    1afc:	38          	neqbranch

00001afd <.LM25>:
    1afd:	8c          	im 12
    1afe:	17          	addsp 28
    1aff:	08          	load
    1b00:	57          	storesp 28
    1b01:	76          	loadsp 24
    1b02:	75          	loadsp 20
    1b03:	2e          	eq
    1b04:	09          	not
    1b05:	81          	im 1
    1b06:	06          	and
    1b07:	df          	im -33
    1b08:	38          	neqbranch

00001b09 <.L24>:
    1b09:	81          	im 1
    1b0a:	1a          	addsp 40
    1b0b:	5a          	storesp 40

00001b0c <.L10>:
    1b0c:	80          	im 0
    1b0d:	d7          	im -41
    1b0e:	8c          	im 12
    1b0f:	08          	load
    1b10:	57          	storesp 28
    1b11:	76          	loadsp 24
    1b12:	80          	im 0
    1b13:	d7          	im -41
    1b14:	84          	im 4
    1b15:	2e          	eq
    1b16:	82          	im 2
    1b17:	c0          	im -64
    1b18:	38          	neqbranch

00001b19 <.LM28>:
    1b19:	84          	im 4
    1b1a:	17          	addsp 28
    1b1b:	08          	load
    1b1c:	fc          	im -4
    1b1d:	06          	and

00001b1e <.LM29>:
    1b1e:	70          	loadsp 0
    1b1f:	7a          	loadsp 40
    1b20:	31          	sub
    1b21:	55          	storesp 20
    1b22:	56          	storesp 24

00001b23 <.LM30>:
    1b23:	73          	loadsp 12
    1b24:	8f          	im 15
    1b25:	24          	lessthan
    1b26:	81          	im 1
    1b27:	f9          	im -7
    1b28:	38          	neqbranch

00001b29 <.LM31>:
    1b29:	80          	im 0
    1b2a:	d7          	im -41
    1b2b:	84          	im 4
    1b2c:	0b          	nop
    1b2d:	80          	im 0
    1b2e:	d7          	im -41
    1b2f:	90          	im 16
    1b30:	0c          	store
    1b31:	80          	im 0
    1b32:	d7          	im -41
    1b33:	84          	im 4
    1b34:	0b          	nop
    1b35:	80          	im 0
    1b36:	d7          	im -41
    1b37:	8c          	im 12
    1b38:	0c          	store

00001b39 <.LM32>:
    1b39:	73          	loadsp 12
    1b3a:	80          	im 0
    1b3b:	25          	lessthanorequal
    1b3c:	fe          	im -2
    1b3d:	b2          	im 50
    1b3e:	38          	neqbranch

00001b3f <.LM33>:
    1b3f:	83          	im 3
    1b40:	ff          	im -1
    1b41:	76          	loadsp 24
    1b42:	27          	ulessthanorequal
    1b43:	83          	im 3
    1b44:	df          	im -33
    1b45:	38          	neqbranch
    1b46:	75          	loadsp 20
    1b47:	89          	im 9
    1b48:	2a          	lshiftright
    1b49:	76          	loadsp 24
    1b4a:	83          	im 3
    1b4b:	2a          	lshiftright
    1b4c:	55          	storesp 20
    1b4d:	53          	storesp 12
    1b4e:	72          	loadsp 8
    1b4f:	80          	im 0
    1b50:	2e          	eq
    1b51:	bf          	im 63
    1b52:	38          	neqbranch
    1b53:	75          	loadsp 20
    1b54:	86          	im 6
    1b55:	2a          	lshiftright
    1b56:	b8          	im 56
    1b57:	05          	add
    1b58:	54          	storesp 16
    1b59:	84          	im 4
    1b5a:	73          	loadsp 12
    1b5b:	27          	ulessthanorequal
    1b5c:	b4          	im 52
    1b5d:	38          	neqbranch
    1b5e:	80          	im 0
    1b5f:	db          	im -37
    1b60:	13          	addsp 12
    1b61:	54          	storesp 16
    1b62:	94          	im 20
    1b63:	73          	loadsp 12
    1b64:	27          	ulessthanorequal
    1b65:	ab          	im 43
    1b66:	38          	neqbranch
    1b67:	75          	loadsp 20
    1b68:	8c          	im 12
    1b69:	2a          	lshiftright
    1b6a:	80          	im 0
    1b6b:	ee          	im -18
    1b6c:	05          	add
    1b6d:	54          	storesp 16
    1b6e:	80          	im 0
    1b6f:	d4          	im -44
    1b70:	73          	loadsp 12
    1b71:	27          	ulessthanorequal
    1b72:	9e          	im 30
    1b73:	38          	neqbranch
    1b74:	75          	loadsp 20
    1b75:	8f          	im 15
    1b76:	2a          	lshiftright
    1b77:	80          	im 0
    1b78:	f7          	im -9
    1b79:	05          	add
    1b7a:	54          	storesp 16
    1b7b:	82          	im 2
    1b7c:	d4          	im -44
    1b7d:	73          	loadsp 12
    1b7e:	27          	ulessthanorequal
    1b7f:	91          	im 17
    1b80:	38          	neqbranch
    1b81:	75          	loadsp 20
    1b82:	92          	im 18
    1b83:	2a          	lshiftright
    1b84:	80          	im 0
    1b85:	fc          	im -4
    1b86:	05          	add
    1b87:	54          	storesp 16
    1b88:	8a          	im 10
    1b89:	d4          	im -44
    1b8a:	73          	loadsp 12
    1b8b:	27          	ulessthanorequal
    1b8c:	84          	im 4
    1b8d:	38          	neqbranch
    1b8e:	80          	im 0
    1b8f:	fe          	im -2
    1b90:	54          	storesp 16

00001b91 <.L37>:
    1b91:	73          	loadsp 12
    1b92:	10          	addsp 0
    1b93:	10          	addsp 0
    1b94:	10          	addsp 0
    1b95:	80          	im 0
    1b96:	d6          	im -42
    1b97:	fc          	im -4
    1b98:	05          	add
    1b99:	88          	im 8
    1b9a:	11          	addsp 4
    1b9b:	08          	load
    1b9c:	56          	storesp 24
    1b9d:	58          	storesp 32
    1b9e:	74          	loadsp 16
    1b9f:	78          	loadsp 32
    1ba0:	2e          	eq
    1ba1:	86          	im 6
    1ba2:	cf          	im -49
    1ba3:	38          	neqbranch

00001ba4 <.L111>:
    1ba4:	84          	im 4
    1ba5:	15          	addsp 20
    1ba6:	08          	load
    1ba7:	fc          	im -4
    1ba8:	06          	and
    1ba9:	53          	storesp 12
    1baa:	75          	loadsp 20
    1bab:	73          	loadsp 12
    1bac:	27          	ulessthanorequal
    1bad:	8d          	im 13
    1bae:	38          	neqbranch
    1baf:	88          	im 8
    1bb0:	15          	addsp 20
    1bb1:	08          	load
    1bb2:	55          	storesp 20
    1bb3:	74          	loadsp 16
    1bb4:	78          	loadsp 32
    1bb5:	2e          	eq
    1bb6:	09          	not
    1bb7:	81          	im 1
    1bb8:	06          	and
    1bb9:	ea          	im -22
    1bba:	38          	neqbranch

00001bbb <.L52>:
    1bbb:	8c          	im 12
    1bbc:	15          	addsp 20
    1bbd:	08          	load
    1bbe:	80          	im 0
    1bbf:	d6          	im -42
    1bc0:	fc          	im -4
    1bc1:	0b          	nop
    1bc2:	84          	im 4
    1bc3:	05          	add
    1bc4:	08          	load
    1bc5:	71          	loadsp 4
    1bc6:	8c          	im 12
    1bc7:	1a          	addsp 40
    1bc8:	0c          	store
    1bc9:	76          	loadsp 24
    1bca:	88          	im 8
    1bcb:	1a          	addsp 40
    1bcc:	0c          	store
    1bcd:	78          	loadsp 32
    1bce:	88          	im 8
    1bcf:	13          	addsp 12
    1bd0:	0c          	store
    1bd1:	78          	loadsp 32
    1bd2:	8c          	im 12
    1bd3:	18          	addsp 32
    1bd4:	0c          	store
    1bd5:	5d          	storesp 52
    1bd6:	58          	storesp 32

00001bd7 <.L30>:
    1bd7:	79          	loadsp 36
    1bd8:	53          	storesp 12
    1bd9:	80          	im 0
    1bda:	7a          	loadsp 40
    1bdb:	24          	lessthan
    1bdc:	83          	im 3
    1bdd:	e6          	im -26
    1bde:	38          	neqbranch

00001bdf <.L55>:
    1bdf:	72          	loadsp 8
    1be0:	82          	im 2
    1be1:	2c          	ashiftright
    1be2:	81          	im 1
    1be3:	71          	loadsp 4
    1be4:	2b          	ashiftleft
    1be5:	5c          	storesp 48
    1be6:	53          	storesp 12
    1be7:	7a          	loadsp 40
    1be8:	7c          	loadsp 48
    1be9:	26          	ulessthan
    1bea:	81          	im 1
    1beb:	98          	im 24
    1bec:	38          	neqbranch

00001bed <.LM35>:
    1bed:	7b          	loadsp 44
    1bee:	7b          	loadsp 44
    1bef:	06          	and
    1bf0:	53          	storesp 12
    1bf1:	72          	loadsp 8
    1bf2:	82          	im 2
    1bf3:	f1          	im -15
    1bf4:	38          	neqbranch

00001bf5 <.LM36>:
    1bf5:	79          	loadsp 36
    1bf6:	fc          	im -4
    1bf7:	06          	and
    1bf8:	84          	im 4
    1bf9:	05          	add
    1bfa:	5a          	storesp 40

00001bfb <.L125>:
    1bfb:	7a          	loadsp 40
    1bfc:	10          	addsp 0

00001bfd <.LM38>:
    1bfd:	70          	loadsp 0
    1bfe:	7d          	loadsp 52
    1bff:	06          	and
    1c00:	54          	storesp 16
    1c01:	5b          	storesp 44
    1c02:	72          	loadsp 8
    1c03:	82          	im 2
    1c04:	e0          	im -32
    1c05:	38          	neqbranch

00001c06 <.LM39>:
    1c06:	84          	im 4
    1c07:	1a          	addsp 40
    1c08:	5a          	storesp 40
    1c09:	f1          	im -15
    1c0a:	39          	poppcrel

00001c0b <.L133>:
    1c0b:	88          	im 8
    1c0c:	17          	addsp 28

00001c0d <.LM41>:
    1c0d:	8c          	im 12
    1c0e:	11          	addsp 4
    1c0f:	08          	load
    1c10:	58          	storesp 32
    1c11:	58          	storesp 32

00001c12 <.LM42>:
    1c12:	76          	loadsp 24
    1c13:	78          	loadsp 32
    1c14:	2e          	eq
    1c15:	09          	not
    1c16:	81          	im 1
    1c17:	06          	and
    1c18:	fc          	im -4
    1c19:	c2          	im -62
    1c1a:	38          	neqbranch

00001c1b <.LM43>:
    1c1b:	82          	im 2
    1c1c:	1a          	addsp 40
    1c1d:	5a          	storesp 40
    1c1e:	fd          	im -3
    1c1f:	ec          	im -20
    1c20:	39          	poppcrel

00001c21 <.L135>:
    1c21:	78          	loadsp 32
    1c22:	17          	addsp 28

00001c23 <.LM45>:
    1c23:	79          	loadsp 36
    1c24:	81          	im 1
    1c25:	07          	or
    1c26:	84          	im 4
    1c27:	19          	addsp 36
    1c28:	0c          	store

00001c29 <.LM46>:
    1c29:	70          	loadsp 0
    1c2a:	80          	im 0
    1c2b:	d7          	im -41
    1c2c:	90          	im 16
    1c2d:	0c          	store
    1c2e:	70          	loadsp 0
    1c2f:	80          	im 0
    1c30:	d7          	im -41
    1c31:	8c          	im 12
    1c32:	0c          	store
    1c33:	80          	im 0
    1c34:	d7          	im -41
    1c35:	84          	im 4
    1c36:	0b          	nop
    1c37:	8c          	im 12
    1c38:	12          	addsp 8
    1c39:	0c          	store
    1c3a:	8c          	im 12
    1c3b:	11          	addsp 4
    1c3c:	08          	load
    1c3d:	88          	im 8
    1c3e:	12          	addsp 8
    1c3f:	0c          	store

00001c40 <.LM47>:
    1c40:	74          	loadsp 16
    1c41:	81          	im 1
    1c42:	07          	or
    1c43:	84          	im 4
    1c44:	12          	addsp 8
    1c45:	0c          	store

00001c46 <.LM48>:
    1c46:	74          	loadsp 16
    1c47:	11          	addsp 4
    1c48:	75          	loadsp 20
    1c49:	71          	loadsp 4
    1c4a:	0c          	store
    1c4b:	51          	storesp 4
    1c4c:	53          	storesp 12

00001c4d <.L148>:
    1c4d:	7d          	loadsp 52
    1c4e:	51          	storesp 4
    1c4f:	88          	im 8
    1c50:	c6          	im -58
    1c51:	3f          	callpcrel

00001c52 <.LM50>:
    1c52:	88          	im 8
    1c53:	17          	addsp 28
    1c54:	54          	storesp 16
    1c55:	fc          	im -4
    1c56:	ac          	im 44
    1c57:	39          	poppcrel

00001c58 <.L112>:
    1c58:	80          	im 0
    1c59:	d6          	im -42
    1c5a:	fc          	im -4
    1c5b:	0b          	nop
    1c5c:	84          	im 4
    1c5d:	05          	add
    1c5e:	08          	load

00001c5f <.LM51>:
    1c5f:	7a          	loadsp 40
    1c60:	54          	storesp 16
    1c61:	5c          	storesp 48
    1c62:	79          	loadsp 36
    1c63:	80          	im 0
    1c64:	25          	lessthanorequal
    1c65:	fe          	im -2
    1c66:	f8          	im -8
    1c67:	38          	neqbranch
    1c68:	82          	im 2
    1c69:	da          	im -38
    1c6a:	39          	poppcrel

00001c6b <.L120>:
    1c6b:	7a          	loadsp 40
    1c6c:	09          	not
    1c6d:	7c          	loadsp 48
    1c6e:	06          	and
    1c6f:	70          	loadsp 0
    1c70:	80          	im 0
    1c71:	d6          	im -42
    1c72:	fc          	im -4
    1c73:	0b          	nop
    1c74:	84          	im 4
    1c75:	05          	add
    1c76:	0c          	store
    1c77:	5c          	storesp 48

00001c78 <.L73>:
    1c78:	7a          	loadsp 40
    1c79:	10          	addsp 0
    1c7a:	5b          	storesp 44
    1c7b:	7a          	loadsp 40
    1c7c:	7c          	loadsp 48
    1c7d:	26          	ulessthan
    1c7e:	85          	im 5
    1c7f:	38          	neqbranch
    1c80:	7a          	loadsp 40
    1c81:	85          	im 5
    1c82:	b8          	im 56
    1c83:	38          	neqbranch

00001c84 <.L54>:
    1c84:	80          	im 0
    1c85:	d6          	im -42
    1c86:	fc          	im -4
    1c87:	0b          	nop
    1c88:	88          	im 8
    1c89:	05          	add
    1c8a:	08          	load
    1c8b:	70          	loadsp 0
    1c8c:	84          	im 4
    1c8d:	12          	addsp 8
    1c8e:	08          	load
    1c8f:	fc          	im -4
    1c90:	06          	and
    1c91:	70          	loadsp 0
    1c92:	7c          	loadsp 48
    1c93:	31          	sub

00001c94 <.LM55>:
    1c94:	7c          	loadsp 48
    1c95:	72          	loadsp 8
    1c96:	26          	ulessthan
    1c97:	8f          	im 15
    1c98:	72          	loadsp 8
    1c99:	25          	lessthanorequal
    1c9a:	07          	or
    1c9b:	57          	storesp 28
    1c9c:	57          	storesp 28
    1c9d:	5c          	storesp 48
    1c9e:	5d          	storesp 52
    1c9f:	55          	storesp 20
    1ca0:	72          	loadsp 8
    1ca1:	80          	im 0
    1ca2:	2e          	eq
    1ca3:	80          	im 0
    1ca4:	db          	im -37
    1ca5:	38          	neqbranch

00001ca6 <.LBB2>:
    1ca6:	79          	loadsp 36

00001ca7 <.LM57>:
    1ca7:	7a          	loadsp 40
    1ca8:	16          	addsp 24

00001ca9 <.LM58>:
    1ca9:	80          	im 0
    1caa:	d6          	im -42
    1cab:	f4          	im -12
    1cac:	08          	load
    1cad:	1b          	addsp 44
    1cae:	90          	im 16
    1caf:	11          	addsp 4
    1cb0:	5a          	storesp 40
    1cb1:	55          	storesp 20
    1cb2:	57          	storesp 28
    1cb3:	5b          	storesp 44

00001cb4 <.LM59>:
    1cb4:	80          	im 0
    1cb5:	d6          	im -42
    1cb6:	f0          	im -16
    1cb7:	08          	load
    1cb8:	ff          	im -1
    1cb9:	2e          	eq
    1cba:	88          	im 8
    1cbb:	38          	neqbranch

00001cbc <.LM60>:
    1cbc:	a0          	im 32
    1cbd:	8f          	im 15
    1cbe:	13          	addsp 12
    1cbf:	e0          	im -32
    1cc0:	80          	im 0
    1cc1:	06          	and
    1cc2:	57          	storesp 28

00001cc3 <.L84>:
    1cc3:	76          	loadsp 24
    1cc4:	52          	storesp 8
    1cc5:	7d          	loadsp 52
    1cc6:	51          	storesp 4
    1cc7:	87          	im 7
    1cc8:	cf          	im -49
    1cc9:	3f          	callpcrel
    1cca:	90          	im 16
    1ccb:	08          	load
    1ccc:	54          	storesp 16

00001ccd <.LM62>:
    1ccd:	90          	im 16
    1cce:	08          	load
    1ccf:	ff          	im -1
    1cd0:	2e          	eq
    1cd1:	90          	im 16
    1cd2:	38          	neqbranch
    1cd3:	90          	im 16
    1cd4:	08          	load
    1cd5:	76          	loadsp 24
    1cd6:	27          	ulessthanorequal
    1cd7:	82          	im 2
    1cd8:	99          	im 25
    1cd9:	38          	neqbranch
    1cda:	74          	loadsp 16
    1cdb:	80          	im 0
    1cdc:	d6          	im -42
    1cdd:	fc          	im -4
    1cde:	2e          	eq
    1cdf:	82          	im 2
    1ce0:	91          	im 17
    1ce1:	38          	neqbranch

00001ce2 <.L114>:
    1ce2:	80          	im 0
    1ce3:	d6          	im -42
    1ce4:	fc          	im -4
    1ce5:	0b          	nop
    1ce6:	88          	im 8
    1ce7:	05          	add
    1ce8:	08          	load
    1ce9:	55          	storesp 20

00001cea <.L87>:
    1cea:	84          	im 4
    1ceb:	15          	addsp 20
    1cec:	08          	load
    1ced:	fc          	im -4
    1cee:	06          	and
    1cef:	70          	loadsp 0
    1cf0:	7a          	loadsp 40
    1cf1:	31          	sub

00001cf2 <.LM64>:
    1cf2:	7a          	loadsp 40
    1cf3:	72          	loadsp 8
    1cf4:	26          	ulessthan
    1cf5:	8f          	im 15
    1cf6:	72          	loadsp 8
    1cf7:	25          	lessthanorequal
    1cf8:	07          	or
    1cf9:	52          	storesp 8
    1cfa:	55          	storesp 20
    1cfb:	53          	storesp 12
    1cfc:	72          	loadsp 8
    1cfd:	83          	im 3
    1cfe:	e6          	im -26
    1cff:	38          	neqbranch

00001d00 <.L81>:
    1d00:	74          	loadsp 16

00001d01 <.LM66>:
    1d01:	79          	loadsp 36
    1d02:	81          	im 1
    1d03:	07          	or
    1d04:	84          	im 4
    1d05:	17          	addsp 28
    1d06:	0c          	store

00001d07 <.LM67>:
    1d07:	79          	loadsp 36
    1d08:	16          	addsp 24
    1d09:	70          	loadsp 0
    1d0a:	80          	im 0
    1d0b:	d6          	im -42
    1d0c:	fc          	im -4
    1d0d:	0b          	nop
    1d0e:	88          	im 8
    1d0f:	05          	add
    1d10:	0c          	store

00001d11 <.LM68>:
    1d11:	75          	loadsp 20
    1d12:	81          	im 1
    1d13:	07          	or
    1d14:	84          	im 4
    1d15:	12          	addsp 8
    1d16:	0c          	store
    1d17:	54          	storesp 16

00001d18 <.LM69>:
    1d18:	7e          	loadsp 56
    1d19:	52          	storesp 8
    1d1a:	57          	storesp 28
    1d1b:	86          	im 6
    1d1c:	fa          	im -6
    1d1d:	3f          	callpcrel

00001d1e <.LM70>:
    1d1e:	88          	im 8
    1d1f:	17          	addsp 28
    1d20:	54          	storesp 16
    1d21:	fa          	im -6
    1d22:	e0          	im -32
    1d23:	39          	poppcrel

00001d24 <.L136>:
    1d24:	75          	loadsp 20
    1d25:	83          	im 3
    1d26:	2a          	lshiftright
    1d27:	70          	loadsp 0
    1d28:	54          	storesp 16
    1d29:	54          	storesp 16
    1d2a:	80          	im 0
    1d2b:	74          	loadsp 16
    1d2c:	24          	lessthan
    1d2d:	81          	im 1
    1d2e:	9b          	im 27
    1d2f:	38          	neqbranch
    1d30:	72          	loadsp 8
    1d31:	82          	im 2
    1d32:	2c          	ashiftright
    1d33:	81          	im 1
    1d34:	71          	loadsp 4
    1d35:	2b          	ashiftleft
    1d36:	80          	im 0
    1d37:	d7          	im -41
    1d38:	80          	im 0
    1d39:	08          	load
    1d3a:	07          	or
    1d3b:	70          	loadsp 0
    1d3c:	80          	im 0
    1d3d:	d6          	im -42
    1d3e:	fc          	im -4
    1d3f:	0b          	nop
    1d40:	84          	im 4
    1d41:	05          	add
    1d42:	0c          	store
    1d43:	75          	loadsp 20
    1d44:	10          	addsp 0
    1d45:	10          	addsp 0
    1d46:	10          	addsp 0
    1d47:	80          	im 0
    1d48:	d6          	im -42
    1d49:	fc          	im -4
    1d4a:	05          	add
    1d4b:	88          	im 8
    1d4c:	11          	addsp 4
    1d4d:	08          	load
    1d4e:	58          	storesp 32
    1d4f:	5a          	storesp 40
    1d50:	5d          	storesp 52
    1d51:	53          	storesp 12

00001d52 <.L142>:
    1d52:	77          	loadsp 28
    1d53:	8c          	im 12
    1d54:	18          	addsp 32
    1d55:	0c          	store
    1d56:	74          	loadsp 16
    1d57:	88          	im 8
    1d58:	18          	addsp 32
    1d59:	0c          	store
    1d5a:	76          	loadsp 24
    1d5b:	88          	im 8
    1d5c:	19          	addsp 36
    1d5d:	0c          	store
    1d5e:	76          	loadsp 24
    1d5f:	8c          	im 12
    1d60:	16          	addsp 24
    1d61:	0c          	store
    1d62:	fc          	im -4
    1d63:	f3          	im -13
    1d64:	39          	poppcrel

00001d65 <.L123>:
    1d65:	79          	loadsp 36

00001d66 <.LM73>:
    1d66:	7a          	loadsp 40
    1d67:	10          	addsp 0
    1d68:	10          	addsp 0
    1d69:	10          	addsp 0
    1d6a:	80          	im 0
    1d6b:	d6          	im -42
    1d6c:	fc          	im -4
    1d6d:	05          	add
    1d6e:	70          	loadsp 0
    1d6f:	57          	storesp 28
    1d70:	59          	storesp 36
    1d71:	5d          	storesp 52

00001d72 <.L62>:
    1d72:	8c          	im 12
    1d73:	15          	addsp 20
    1d74:	08          	load
    1d75:	57          	storesp 28
    1d76:	76          	loadsp 24
    1d77:	75          	loadsp 20
    1d78:	2e          	eq
    1d79:	a3          	im 35
    1d7a:	38          	neqbranch

00001d7b <.L141>:
    1d7b:	84          	im 4
    1d7c:	17          	addsp 28
    1d7d:	08          	load
    1d7e:	fc          	im -4
    1d7f:	06          	and

00001d80 <.LM76>:
    1d80:	70          	loadsp 0
    1d81:	7a          	loadsp 40
    1d82:	31          	sub
    1d83:	55          	storesp 20
    1d84:	56          	storesp 24

00001d85 <.LM77>:
    1d85:	73          	loadsp 12
    1d86:	8f          	im 15
    1d87:	24          	lessthan
    1d88:	83          	im 3
    1d89:	ca          	im -54
    1d8a:	38          	neqbranch

00001d8b <.LM78>:
    1d8b:	73          	loadsp 12
    1d8c:	80          	im 0
    1d8d:	25          	lessthanorequal
    1d8e:	84          	im 4
    1d8f:	81          	im 1
    1d90:	38          	neqbranch

00001d91 <.LM79>:
    1d91:	8c          	im 12
    1d92:	17          	addsp 28
    1d93:	08          	load
    1d94:	57          	storesp 28
    1d95:	76          	loadsp 24
    1d96:	75          	loadsp 20
    1d97:	2e          	eq
    1d98:	09          	not
    1d99:	81          	im 1
    1d9a:	06          	and
    1d9b:	df          	im -33
    1d9c:	38          	neqbranch

00001d9d <.L108>:
    1d9d:	88          	im 8
    1d9e:	15          	addsp 20

00001d9f <.LM81>:
    1d9f:	81          	im 1
    1da0:	1b          	addsp 44
    1da1:	70          	loadsp 0
    1da2:	83          	im 3
    1da3:	06          	and
    1da4:	55          	storesp 20
    1da5:	5b          	storesp 44
    1da6:	55          	storesp 20
    1da7:	72          	loadsp 8
    1da8:	c9          	im -55
    1da9:	38          	neqbranch

00001daa <.L72>:
    1daa:	7c          	loadsp 48
    1dab:	83          	im 3
    1dac:	06          	and
    1dad:	53          	storesp 12
    1dae:	72          	loadsp 8
    1daf:	80          	im 0
    1db0:	2e          	eq
    1db1:	fd          	im -3
    1db2:	b8          	im 56
    1db3:	38          	neqbranch

00001db4 <.LM83>:
    1db4:	ff          	im -1
    1db5:	1d          	addsp 52

00001db6 <.LM84>:
    1db6:	f8          	im -8
    1db7:	19          	addsp 36
    1db8:	59          	storesp 36
    1db9:	5d          	storesp 52

00001dba <.LM85>:
    1dba:	88          	im 8
    1dbb:	18          	addsp 32
    1dbc:	08          	load
    1dbd:	78          	loadsp 32
    1dbe:	2e          	eq
    1dbf:	ea          	im -22
    1dc0:	38          	neqbranch
    1dc1:	fd          	im -3
    1dc2:	b5          	im 53
    1dc3:	39          	poppcrel

00001dc4 <.L138>:
    1dc4:	83          	im 3
    1dc5:	1a          	addsp 40
    1dc6:	53          	storesp 12
    1dc7:	fc          	im -4
    1dc8:	96          	im 22
    1dc9:	39          	poppcrel

00001dca <.L140>:
    1dca:	83          	im 3
    1dcb:	14          	addsp 16
    1dcc:	70          	loadsp 0
    1dcd:	82          	im 2
    1dce:	2c          	ashiftright
    1dcf:	81          	im 1
    1dd0:	71          	loadsp 4
    1dd1:	2b          	ashiftleft
    1dd2:	80          	im 0
    1dd3:	d7          	im -41
    1dd4:	80          	im 0
    1dd5:	08          	load
    1dd6:	07          	or
    1dd7:	70          	loadsp 0
    1dd8:	80          	im 0
    1dd9:	d6          	im -42
    1dda:	fc          	im -4
    1ddb:	0b          	nop
    1ddc:	84          	im 4
    1ddd:	05          	add
    1dde:	0c          	store
    1ddf:	76          	loadsp 24
    1de0:	10          	addsp 0
    1de1:	10          	addsp 0
    1de2:	10          	addsp 0
    1de3:	80          	im 0
    1de4:	d6          	im -42
    1de5:	fc          	im -4
    1de6:	05          	add
    1de7:	88          	im 8
    1de8:	11          	addsp 4
    1de9:	08          	load
    1dea:	59          	storesp 36
    1deb:	5b          	storesp 44
    1dec:	5e          	storesp 56
    1ded:	51          	storesp 4
    1dee:	53          	storesp 12
    1def:	fe          	im -2
    1df0:	e1          	im -31
    1df1:	39          	poppcrel

00001df2 <.L85>:
    1df2:	80          	im 0
    1df3:	d6          	im -42
    1df4:	c0          	im -64
    1df5:	08          	load
    1df6:	17          	addsp 28
    1df7:	58          	storesp 32

00001df8 <.LM89>:
    1df8:	90          	im 16
    1df9:	08          	load
    1dfa:	76          	loadsp 24
    1dfb:	2e          	eq
    1dfc:	81          	im 1
    1dfd:	8d          	im 13
    1dfe:	38          	neqbranch

00001dff <.L88>:
    1dff:	80          	im 0
    1e00:	d6          	im -42
    1e01:	f0          	im -16
    1e02:	08          	load
    1e03:	ff          	im -1
    1e04:	2e          	eq
    1e05:	83          	im 3
    1e06:	ec          	im -20
    1e07:	38          	neqbranch

00001e08 <.LM91>:
    1e08:	73          	loadsp 12
    1e09:	76          	loadsp 24
    1e0a:	31          	sub
    1e0b:	18          	addsp 32
    1e0c:	80          	im 0
    1e0d:	d6          	im -42
    1e0e:	c0          	im -64
    1e0f:	0c          	store

00001e10 <.L91>:
    1e10:	73          	loadsp 12
    1e11:	87          	im 7
    1e12:	06          	and

00001e13 <.LM93>:
    1e13:	70          	loadsp 0
    1e14:	57          	storesp 28
    1e15:	53          	storesp 12

00001e16 <.LM94>:
    1e16:	72          	loadsp 8
    1e17:	80          	im 0
    1e18:	2e          	eq
    1e19:	88          	im 8
    1e1a:	38          	neqbranch

00001e1b <.LM95>:
    1e1b:	88          	im 8
    1e1c:	73          	loadsp 12
    1e1d:	31          	sub

00001e1e <.LM96>:
    1e1e:	70          	loadsp 0
    1e1f:	15          	addsp 20
    1e20:	55          	storesp 20
    1e21:	56          	storesp 24

00001e22 <.L93>:
    1e22:	76          	loadsp 24
    1e23:	14          	addsp 16
    1e24:	9f          	im 31
    1e25:	ff          	im -1
    1e26:	06          	and
    1e27:	a0          	im 32
    1e28:	80          	im 0
    1e29:	71          	loadsp 4
    1e2a:	31          	sub
    1e2b:	17          	addsp 28

00001e2c <.LM98>:
    1e2c:	70          	loadsp 0
    1e2d:	54          	storesp 16
    1e2e:	7f          	loadsp 60
    1e2f:	53          	storesp 12
    1e30:	57          	storesp 28
    1e31:	53          	storesp 12
    1e32:	84          	im 4
    1e33:	e4          	im -28
    1e34:	3f          	callpcrel
    1e35:	90          	im 16
    1e36:	08          	load
    1e37:	53          	storesp 12

00001e38 <.LM99>:
    1e38:	90          	im 16
    1e39:	08          	load
    1e3a:	ff          	im -1
    1e3b:	2e          	eq
    1e3c:	81          	im 1
    1e3d:	a0          	im 32
    1e3e:	38          	neqbranch

00001e3f <.L94>:
    1e3f:	80          	im 0
    1e40:	d6          	im -42
    1e41:	c0          	im -64
    1e42:	08          	load
    1e43:	16          	addsp 24
    1e44:	70          	loadsp 0
    1e45:	80          	im 0
    1e46:	d6          	im -42
    1e47:	c0          	im -64
    1e48:	0c          	store

00001e49 <.LM101>:
    1e49:	74          	loadsp 16
    1e4a:	75          	loadsp 20
    1e4b:	80          	im 0
    1e4c:	d6          	im -42
    1e4d:	fc          	im -4
    1e4e:	0b          	nop
    1e4f:	88          	im 8
    1e50:	05          	add
    1e51:	0c          	store

00001e52 <.LM102>:
    1e52:	74          	loadsp 16
    1e53:	76          	loadsp 24
    1e54:	31          	sub
    1e55:	18          	addsp 32

00001e56 <.LM103>:
    1e56:	70          	loadsp 0
    1e57:	81          	im 1
    1e58:	07          	or
    1e59:	51          	storesp 4
    1e5a:	55          	storesp 20
    1e5b:	56          	storesp 24
    1e5c:	58          	storesp 32

00001e5d <.LM104>:
    1e5d:	7b          	loadsp 44
    1e5e:	80          	im 0
    1e5f:	d6          	im -42
    1e60:	fc          	im -4
    1e61:	2e          	eq
    1e62:	83          	im 3
    1e63:	9c          	im 28
    1e64:	38          	neqbranch

00001e65 <.LM105>:
    1e65:	79          	loadsp 36
    1e66:	8f          	im 15
    1e67:	26          	ulessthan
    1e68:	82          	im 2
    1e69:	cb          	im -53
    1e6a:	38          	neqbranch

00001e6b <.LM106>:
    1e6b:	81          	im 1
    1e6c:	0b          	nop
    1e6d:	84          	im 4
    1e6e:	15          	addsp 20
    1e6f:	0c          	store

00001e70 <.LM107>:
    1e70:	84          	im 4
    1e71:	15          	addsp 20
    1e72:	08          	load
    1e73:	fc          	im -4
    1e74:	06          	and
    1e75:	70          	loadsp 0
    1e76:	7a          	loadsp 40
    1e77:	31          	sub

00001e78 <.LM108>:
    1e78:	7a          	loadsp 40
    1e79:	72          	loadsp 8
    1e7a:	26          	ulessthan
    1e7b:	8f          	im 15
    1e7c:	72          	loadsp 8
    1e7d:	25          	lessthanorequal
    1e7e:	07          	or
    1e7f:	52          	storesp 8
    1e80:	55          	storesp 20
    1e81:	53          	storesp 12
    1e82:	72          	loadsp 8
    1e83:	80          	im 0
    1e84:	2e          	eq
    1e85:	fc          	im -4
    1e86:	f9          	im -7
    1e87:	38          	neqbranch
    1e88:	80          	im 0
    1e89:	db          	im -37
    1e8a:	39          	poppcrel

00001e8b <.L143>:
    1e8b:	90          	im 16
    1e8c:	08          	load
    1e8d:	9f          	im 31
    1e8e:	ff          	im -1
    1e8f:	06          	and
    1e90:	53          	storesp 12
    1e91:	72          	loadsp 8
    1e92:	fe          	im -2
    1e93:	eb          	im -21
    1e94:	38          	neqbranch
    1e95:	77          	loadsp 28
    1e96:	80          	im 0
    1e97:	d6          	im -42
    1e98:	c0          	im -64
    1e99:	0c          	store

00001e9a <.LM110>:
    1e9a:	80          	im 0
    1e9b:	d6          	im -42
    1e9c:	fc          	im -4
    1e9d:	0b          	nop
    1e9e:	88          	im 8
    1e9f:	05          	add
    1ea0:	08          	load
    1ea1:	7b          	loadsp 44
    1ea2:	18          	addsp 32
    1ea3:	81          	im 1
    1ea4:	07          	or
    1ea5:	84          	im 4
    1ea6:	12          	addsp 8
    1ea7:	0c          	store
    1ea8:	55          	storesp 20

00001ea9 <.L89>:
    1ea9:	80          	im 0
    1eaa:	d6          	im -42
    1eab:	ec          	im -20
    1eac:	08          	load
    1ead:	78          	loadsp 32
    1eae:	27          	ulessthanorequal
    1eaf:	86          	im 6
    1eb0:	38          	neqbranch

00001eb1 <.LM112>:
    1eb1:	77          	loadsp 28
    1eb2:	80          	im 0
    1eb3:	d6          	im -42
    1eb4:	ec          	im -20
    1eb5:	0c          	store

00001eb6 <.L98>:
    1eb6:	80          	im 0
    1eb7:	d6          	im -42
    1eb8:	e8          	im -24
    1eb9:	08          	load
    1eba:	78          	loadsp 32
    1ebb:	27          	ulessthanorequal
    1ebc:	fc          	im -4
    1ebd:	ac          	im 44
    1ebe:	38          	neqbranch

00001ebf <.LM114>:
    1ebf:	77          	loadsp 28
    1ec0:	80          	im 0
    1ec1:	d6          	im -42
    1ec2:	e8          	im -24
    1ec3:	0c          	store

00001ec4 <.LM115>:
    1ec4:	84          	im 4
    1ec5:	15          	addsp 20
    1ec6:	08          	load
    1ec7:	fc          	im -4
    1ec8:	06          	and
    1ec9:	70          	loadsp 0
    1eca:	7a          	loadsp 40
    1ecb:	31          	sub

00001ecc <.LM116>:
    1ecc:	7a          	loadsp 40
    1ecd:	72          	loadsp 8
    1ece:	26          	ulessthan
    1ecf:	8f          	im 15
    1ed0:	72          	loadsp 8
    1ed1:	25          	lessthanorequal
    1ed2:	07          	or
    1ed3:	52          	storesp 8
    1ed4:	55          	storesp 20
    1ed5:	53          	storesp 12
    1ed6:	72          	loadsp 8
    1ed7:	80          	im 0
    1ed8:	2e          	eq
    1ed9:	fc          	im -4
    1eda:	a5          	im 37
    1edb:	38          	neqbranch
    1edc:	88          	im 8
    1edd:	39          	poppcrel

00001ede <.L145>:
    1ede:	80          	im 0

00001edf <.LM118>:
    1edf:	74          	loadsp 16
    1ee0:	54          	storesp 16
    1ee1:	56          	storesp 24
    1ee2:	fe          	im -2
    1ee3:	db          	im -37
    1ee4:	39          	poppcrel

00001ee5 <.L139>:
    1ee5:	7d          	loadsp 52
    1ee6:	51          	storesp 4
    1ee7:	83          	im 3
    1ee8:	ae          	im 46
    1ee9:	3f          	callpcrel

00001eea <.LM120>:
    1eea:	80          	im 0

00001eeb <.LM121>:
    1eeb:	0b          	nop
    1eec:	90          	im 16
    1eed:	0c          	store
    1eee:	8f          	im 15
    1eef:	3d          	pushspadd
    1ef0:	0d          	popsp
    1ef1:	04          	poppc

00001ef2 <.L137>:
    1ef2:	73          	loadsp 12
    1ef3:	53          	storesp 12
    1ef4:	80          	im 0
    1ef5:	74          	loadsp 16
    1ef6:	24          	lessthan
    1ef7:	a9          	im 41
    1ef8:	38          	neqbranch
    1ef9:	72          	loadsp 8
    1efa:	82          	im 2
    1efb:	2c          	ashiftright
    1efc:	81          	im 1
    1efd:	71          	loadsp 4
    1efe:	2b          	ashiftleft
    1eff:	80          	im 0
    1f00:	d7          	im -41
    1f01:	80          	im 0
    1f02:	08          	load
    1f03:	07          	or
    1f04:	70          	loadsp 0
    1f05:	80          	im 0
    1f06:	d6          	im -42
    1f07:	fc          	im -4
    1f08:	0b          	nop
    1f09:	84          	im 4
    1f0a:	05          	add
    1f0b:	0c          	store
    1f0c:	5d          	storesp 52
    1f0d:	53          	storesp 12

00001f0e <.L147>:
    1f0e:	77          	loadsp 28
    1f0f:	8c          	im 12
    1f10:	18          	addsp 32
    1f11:	0c          	store
    1f12:	74          	loadsp 16
    1f13:	88          	im 8
    1f14:	18          	addsp 32
    1f15:	0c          	store
    1f16:	76          	loadsp 24
    1f17:	88          	im 8
    1f18:	19          	addsp 36
    1f19:	0c          	store
    1f1a:	76          	loadsp 24
    1f1b:	8c          	im 12
    1f1c:	16          	addsp 24
    1f1d:	0c          	store
    1f1e:	f9          	im -7
    1f1f:	b7          	im 55
    1f20:	39          	poppcrel

00001f21 <.L146>:
    1f21:	83          	im 3
    1f22:	14          	addsp 16
    1f23:	70          	loadsp 0
    1f24:	82          	im 2
    1f25:	2c          	ashiftright
    1f26:	81          	im 1
    1f27:	71          	loadsp 4
    1f28:	2b          	ashiftleft
    1f29:	80          	im 0
    1f2a:	d7          	im -41
    1f2b:	80          	im 0
    1f2c:	08          	load
    1f2d:	07          	or
    1f2e:	70          	loadsp 0
    1f2f:	80          	im 0
    1f30:	d6          	im -42
    1f31:	fc          	im -4
    1f32:	0b          	nop
    1f33:	84          	im 4
    1f34:	05          	add
    1f35:	0c          	store
    1f36:	5e          	storesp 56
    1f37:	51          	storesp 4
    1f38:	53          	storesp 12
    1f39:	d4          	im -44
    1f3a:	39          	poppcrel

00001f3b <.L127>:
    1f3b:	7b          	loadsp 44
    1f3c:	7b          	loadsp 44
    1f3d:	06          	and
    1f3e:	53          	storesp 12
    1f3f:	72          	loadsp 8
    1f40:	fc          	im -4
    1f41:	a3          	im 35
    1f42:	38          	neqbranch

00001f43 <.LM124>:
    1f43:	84          	im 4
    1f44:	1a          	addsp 40

00001f45 <.LM125>:
    1f45:	7b          	loadsp 44
    1f46:	10          	addsp 0
    1f47:	5c          	storesp 48
    1f48:	5a          	storesp 40
    1f49:	f1          	im -15
    1f4a:	39          	poppcrel

00001f4b <.L116>:
    1f4b:	ff          	im -1
    1f4c:	1a          	addsp 40

00001f4d <.LM127>:
    1f4d:	81          	im 1
    1f4e:	11          	addsp 4
    1f4f:	51          	storesp 4
    1f50:	5a          	storesp 40
    1f51:	f7          	im -9
    1f52:	b9          	im 57
    1f53:	39          	poppcrel

00001f54 <.L118>:
    1f54:	78          	loadsp 32
    1f55:	17          	addsp 28

00001f56 <.LM129>:
    1f56:	79          	loadsp 36
    1f57:	81          	im 1
    1f58:	07          	or
    1f59:	84          	im 4
    1f5a:	19          	addsp 36
    1f5b:	0c          	store

00001f5c <.LM130>:
    1f5c:	8c          	im 12
    1f5d:	18          	addsp 32
    1f5e:	08          	load
    1f5f:	88          	im 8
    1f60:	19          	addsp 36
    1f61:	08          	load
    1f62:	71          	loadsp 4
    1f63:	8c          	im 12
    1f64:	12          	addsp 8
    1f65:	0c          	store
    1f66:	88          	im 8
    1f67:	12          	addsp 8
    1f68:	0c          	store
    1f69:	59          	storesp 36

00001f6a <.LM131>:
    1f6a:	70          	loadsp 0
    1f6b:	80          	im 0
    1f6c:	d7          	im -41
    1f6d:	90          	im 16
    1f6e:	0c          	store
    1f6f:	70          	loadsp 0
    1f70:	80          	im 0
    1f71:	d7          	im -41
    1f72:	8c          	im 12
    1f73:	0c          	store
    1f74:	80          	im 0
    1f75:	d7          	im -41
    1f76:	84          	im 4
    1f77:	0b          	nop
    1f78:	8c          	im 12
    1f79:	12          	addsp 8
    1f7a:	0c          	store
    1f7b:	8c          	im 12
    1f7c:	11          	addsp 4
    1f7d:	08          	load
    1f7e:	88          	im 8
    1f7f:	12          	addsp 8
    1f80:	0c          	store

00001f81 <.LM132>:
    1f81:	74          	loadsp 16
    1f82:	81          	im 1
    1f83:	07          	or
    1f84:	84          	im 4
    1f85:	12          	addsp 8
    1f86:	0c          	store

00001f87 <.LM133>:
    1f87:	74          	loadsp 16
    1f88:	11          	addsp 4
    1f89:	75          	loadsp 20
    1f8a:	71          	loadsp 4
    1f8b:	0c          	store
    1f8c:	51          	storesp 4
    1f8d:	53          	storesp 12
    1f8e:	f9          	im -7
    1f8f:	bd          	im 61
    1f90:	39          	poppcrel

00001f91 <.L119>:
    1f91:	75          	loadsp 20
    1f92:	17          	addsp 28
    1f93:	84          	im 4
    1f94:	11          	addsp 4
    1f95:	08          	load
    1f96:	81          	im 1
    1f97:	07          	or
    1f98:	84          	im 4
    1f99:	12          	addsp 8
    1f9a:	0c          	store
    1f9b:	53          	storesp 12

00001f9c <.LM135>:
    1f9c:	8c          	im 12
    1f9d:	17          	addsp 28
    1f9e:	08          	load
    1f9f:	88          	im 8
    1fa0:	18          	addsp 32
    1fa1:	08          	load
    1fa2:	71          	loadsp 4
    1fa3:	8c          	im 12
    1fa4:	12          	addsp 8
    1fa5:	0c          	store
    1fa6:	88          	im 8
    1fa7:	12          	addsp 8
    1fa8:	0c          	store
    1fa9:	58          	storesp 32

00001faa <.LM136>:
    1faa:	7d          	loadsp 52
    1fab:	51          	storesp 4
    1fac:	81          	im 1
    1fad:	e9          	im -23
    1fae:	3f          	callpcrel

00001faf <.LM137>:
    1faf:	88          	im 8
    1fb0:	17          	addsp 28
    1fb1:	54          	storesp 16
    1fb2:	f5          	im -11
    1fb3:	cf          	im -49
    1fb4:	39          	poppcrel

00001fb5 <.L96>:
    1fb5:	72          	loadsp 8
    1fb6:	84          	im 4
    1fb7:	15          	addsp 20
    1fb8:	0c          	store

00001fb9 <.LM138>:
    1fb9:	f4          	im -12
    1fba:	1a          	addsp 40
    1fbb:	f8          	im -8
    1fbc:	06          	and

00001fbd <.LM139>:
    1fbd:	70          	loadsp 0
    1fbe:	84          	im 4
    1fbf:	1e          	addsp 56
    1fc0:	08          	load
    1fc1:	81          	im 1
    1fc2:	06          	and
    1fc3:	07          	or
    1fc4:	84          	im 4
    1fc5:	1e          	addsp 56
    1fc6:	0c          	store

00001fc7 <.LM140>:
    1fc7:	70          	loadsp 0
    1fc8:	1d          	addsp 52
    1fc9:	54          	storesp 16
    1fca:	5b          	storesp 44
    1fcb:	85          	im 5
    1fcc:	0b          	nop
    1fcd:	84          	im 4
    1fce:	14          	addsp 16
    1fcf:	0c          	store

00001fd0 <.LM141>:
    1fd0:	85          	im 5
    1fd1:	0b          	nop
    1fd2:	88          	im 8
    1fd3:	14          	addsp 16
    1fd4:	0c          	store

00001fd5 <.LM142>:
    1fd5:	8f          	im 15
    1fd6:	7b          	loadsp 44
    1fd7:	27          	ulessthanorequal
    1fd8:	fd          	im -3
    1fd9:	cf          	im -49
    1fda:	38          	neqbranch

00001fdb <.LM143>:
    1fdb:	88          	im 8
    1fdc:	1c          	addsp 48
    1fdd:	52          	storesp 8
    1fde:	7d          	loadsp 52
    1fdf:	51          	storesp 4
    1fe0:	ec          	im -20
    1fe1:	9e          	im 30
    1fe2:	3f          	callpcrel
    1fe3:	80          	im 0
    1fe4:	d6          	im -42
    1fe5:	fc          	im -4
    1fe6:	0b          	nop
    1fe7:	88          	im 8
    1fe8:	05          	add
    1fe9:	08          	load
    1fea:	80          	im 0
    1feb:	d6          	im -42
    1fec:	c0          	im -64
    1fed:	08          	load
    1fee:	59          	storesp 36
    1fef:	55          	storesp 20
    1ff0:	fd          	im -3
    1ff1:	b7          	im 55
    1ff2:	39          	poppcrel

00001ff3 <.L144>:
    1ff3:	77          	loadsp 28
    1ff4:	80          	im 0
    1ff5:	d6          	im -42
    1ff6:	c0          	im -64
    1ff7:	0c          	store

00001ff8 <.LM144>:
    1ff8:	73          	loadsp 12
    1ff9:	80          	im 0
    1ffa:	d6          	im -42
    1ffb:	f0          	im -16
    1ffc:	0c          	store
    1ffd:	fc          	im -4
    1ffe:	91          	im 17
    1fff:	39          	poppcrel

00002000 <.L115>:
    2000:	72          	loadsp 8
    2001:	84          	im 4
    2002:	15          	addsp 20
    2003:	0c          	store
    2004:	fd          	im -3
    2005:	a3          	im 35
    2006:	39          	poppcrel

00002007 <memset>:
    2007:	fc          	im -4
    2008:	3d          	pushspadd
    2009:	0d          	popsp
    200a:	76          	loadsp 24
    200b:	79          	loadsp 36

0000200c <.LM2>:
    200c:	71          	loadsp 4

0000200d <.LM3>:
    200d:	02          	pushsp
    200e:	8c          	im 12
    200f:	05          	add
    2010:	9f          	im 31
    2011:	05          	add
    2012:	33          	loadb
    2013:	57          	storesp 28
    2014:	55          	storesp 20
    2015:	53          	storesp 12
    2016:	55          	storesp 20

00002017 <.LM4>:
    2017:	83          	im 3
    2018:	72          	loadsp 8
    2019:	27          	ulessthanorequal
    201a:	8a          	im 10
    201b:	38          	neqbranch
    201c:	74          	loadsp 16
    201d:	83          	im 3
    201e:	06          	and
    201f:	51          	storesp 4
    2020:	70          	loadsp 0
    2021:	80          	im 0
    2022:	2e          	eq
    2023:	a2          	im 34
    2024:	38          	neqbranch

00002025 <.L2>:
    2025:	ff          	im -1
    2026:	12          	addsp 8
    2027:	52          	storesp 8
    2028:	71          	loadsp 4
    2029:	ff          	im -1
    202a:	2e          	eq
    202b:	93          	im 19
    202c:	38          	neqbranch

0000202d <.L27>:
    202d:	73          	loadsp 12
    202e:	73          	loadsp 12
    202f:	70          	loadsp 0
    2030:	81          	im 1
    2031:	05          	add
    2032:	55          	storesp 20
    2033:	34          	storeb
    2034:	ff          	im -1
    2035:	12          	addsp 8
    2036:	52          	storesp 8
    2037:	71          	loadsp 4
    2038:	ff          	im -1
    2039:	2e          	eq
    203a:	09          	not
    203b:	81          	im 1
    203c:	06          	and
    203d:	ef          	im -17
    203e:	38          	neqbranch

0000203f <.L23>:
    203f:	74          	loadsp 16
    2040:	90          	im 16
    2041:	0c          	store
    2042:	86          	im 6
    2043:	3d          	pushspadd
    2044:	0d          	popsp
    2045:	04          	poppc

00002046 <.L26>:
    2046:	74          	loadsp 16

00002047 <.LM8>:
    2047:	74          	loadsp 16
    2048:	88          	im 8
    2049:	2b          	ashiftleft
    204a:	75          	loadsp 20
    204b:	07          	or

0000204c <.LM9>:
    204c:	70          	loadsp 0
    204d:	71          	loadsp 4
    204e:	90          	im 16
    204f:	2b          	ashiftleft
    2050:	07          	or
    2051:	51          	storesp 4
    2052:	54          	storesp 16
    2053:	51          	storesp 4

00002054 <.LM10>:
    2054:	8f          	im 15
    2055:	72          	loadsp 8
    2056:	27          	ulessthanorequal
    2057:	a5          	im 37
    2058:	38          	neqbranch

00002059 <.L28>:
    2059:	72          	loadsp 8
    205a:	71          	loadsp 4
    205b:	70          	loadsp 0
    205c:	84          	im 4
    205d:	05          	add
    205e:	53          	storesp 12
    205f:	0c          	store

00002060 <.LM12>:
    2060:	72          	loadsp 8
    2061:	71          	loadsp 4
    2062:	70          	loadsp 0
    2063:	84          	im 4
    2064:	05          	add
    2065:	53          	storesp 12
    2066:	0c          	store

00002067 <.LM13>:
    2067:	72          	loadsp 8
    2068:	71          	loadsp 4
    2069:	70          	loadsp 0
    206a:	84          	im 4
    206b:	05          	add
    206c:	53          	storesp 12
    206d:	0c          	store

0000206e <.LM14>:
    206e:	72          	loadsp 8
    206f:	71          	loadsp 4
    2070:	70          	loadsp 0
    2071:	84          	im 4
    2072:	05          	add
    2073:	53          	storesp 12
    2074:	0c          	store

00002075 <.LM15>:
    2075:	f0          	im -16
    2076:	12          	addsp 8
    2077:	52          	storesp 8
    2078:	71          	loadsp 4
    2079:	8f          	im 15
    207a:	26          	ulessthan
    207b:	dd          	im -35
    207c:	38          	neqbranch

0000207d <.L19>:
    207d:	83          	im 3
    207e:	72          	loadsp 8
    207f:	27          	ulessthanorequal
    2080:	90          	im 16
    2081:	38          	neqbranch

00002082 <.L29>:
    2082:	72          	loadsp 8
    2083:	71          	loadsp 4
    2084:	70          	loadsp 0
    2085:	84          	im 4
    2086:	05          	add
    2087:	53          	storesp 12
    2088:	0c          	store

00002089 <.LM18>:
    2089:	fc          	im -4
    208a:	12          	addsp 8
    208b:	52          	storesp 8
    208c:	71          	loadsp 4
    208d:	83          	im 3
    208e:	26          	ulessthan
    208f:	f2          	im -14
    2090:	38          	neqbranch

00002091 <.L21>:
    2091:	70          	loadsp 0
    2092:	53          	storesp 12
    2093:	ff          	im -1
    2094:	90          	im 16
    2095:	39          	poppcrel

00002096 <__malloc_lock>:
    2096:	04          	poppc

00002097 <__malloc_unlock>:
    2097:	04          	poppc

00002098 <_sbrk_r>:
    2098:	fd          	im -3
    2099:	3d          	pushspadd
    209a:	0d          	popsp

0000209b <.LM2>:
    209b:	80          	im 0
    209c:	0b          	nop
    209d:	80          	im 0
    209e:	df          	im -33
    209f:	b4          	im 52
    20a0:	0c          	store

000020a1 <.LM3>:
    20a1:	76          	loadsp 24
    20a2:	51          	storesp 4
    20a3:	84          	im 4
